libqucs.so:_Z10citi_allocm
libqucs.so:_Z10csv_get_inv
libqucs.so:_Z10csv_set_inP8_IO_FILE
libqucs.so:_Z10mdl_get_inv
libqucs.so:_Z10mdl_set_inP8_IO_FILE
libqucs.so:_Z10zvr_get_inv
libqucs.so:_Z10zvr_set_inP8_IO_FILE
libqucs.so:_Z11citi_get_inv
libqucs.so:_Z11citi_set_inP8_IO_FILE
libqucs.so:_Z11csv_get_outv
libqucs.so:_Z11csv_reallocPvm
libqucs.so:_Z11csv_restartP8_IO_FILE
libqucs.so:_Z11csv_set_outP8_IO_FILE
libqucs.so:_Z11mdl_get_outv
libqucs.so:_Z11mdl_reallocPvm
libqucs.so:_Z11mdl_restartP8_IO_FILE
libqucs.so:_Z11mdl_set_outP8_IO_FILE
libqucs.so:_Z11zvr_get_outv
libqucs.so:_Z11zvr_reallocPvm
libqucs.so:_Z11zvr_restartP8_IO_FILE
libqucs.so:_Z11zvr_set_outP8_IO_FILE
libqucs.so:_Z12citi_get_outv
libqucs.so:_Z12citi_reallocPvm
libqucs.so:_Z12citi_restartP8_IO_FILE
libqucs.so:_Z12citi_set_outP8_IO_FILE
libqucs.so:_Z12csv_get_lengv
libqucs.so:_Z12csv_get_textv
libqucs.so:_Z12dataset_freePv
libqucs.so:_Z12mdl_get_lengv
libqucs.so:_Z12mdl_get_textv
libqucs.so:_Z12netlist_freePv
libqucs.so:_Z12zvr_get_lengv
libqucs.so:_Z12zvr_get_textv
libqucs.so:_Z13citi_finalizev
libqucs.so:_Z13citi_get_lengv
libqucs.so:_Z13citi_get_textv
libqucs.so:_Z13csv_get_debugv
libqucs.so:_Z13csv_set_debugi
libqucs.so:_Z13dataset_allocm
libqucs.so:_Z13mdl_get_debugv
libqucs.so:_Z13mdl_set_debugi
libqucs.so:_Z13netlist_allocm
libqucs.so:_Z13zvr_get_debugv
libqucs.so:_Z13zvr_set_debugi
libqucs.so:_Z14citi_get_debugv
libqucs.so:_Z14citi_set_debugi
libqucs.so:_Z14csv_get_linenov
libqucs.so:_Z14csv_set_linenoi
libqucs.so:_Z14dataset_get_inv
libqucs.so:_Z14dataset_set_inP8_IO_FILE
libqucs.so:_Z14mdl_get_linenov
libqucs.so:_Z14mdl_set_linenoi
libqucs.so:_Z14netlist_get_inv
libqucs.so:_Z14netlist_set_inP8_IO_FILE
libqucs.so:_Z14zvr_get_linenov
libqucs.so:_Z14zvr_set_linenoi
libqucs.so:_Z15citi_get_linenov
libqucs.so:_Z15citi_set_linenoi
libqucs.so:_Z15csv__scan_bytesPKci
libqucs.so:_Z15dataset_get_outv
libqucs.so:_Z15dataset_reallocPvm
libqucs.so:_Z15dataset_restartP8_IO_FILE
libqucs.so:_Z15dataset_set_outP8_IO_FILE
libqucs.so:_Z15mdl__scan_bytesPKci
libqucs.so:_Z15netlist_get_outv
libqucs.so:_Z15netlist_reallocPvm
libqucs.so:_Z15netlist_restartP8_IO_FILE
libqucs.so:_Z15netlist_set_outP8_IO_FILE
libqucs.so:_Z15splitMicrostripPN4qucs7circuitES1_PNS_3netEPKcS5_i
libqucs.so:_Z15touchstone_freePv
libqucs.so:_Z15zvr__scan_bytesPKci
libqucs.so:_Z16citi__scan_bytesPKci
libqucs.so:_Z16csv__scan_bufferPcm
libqucs.so:_Z16csv__scan_stringPKc
libqucs.so:_Z16dataset_get_lengv
libqucs.so:_Z16dataset_get_textv
libqucs.so:_Z16mdl__scan_bufferPcm
libqucs.so:_Z16mdl__scan_stringPKc
libqucs.so:_Z16netlist_get_lengv
libqucs.so:_Z16netlist_get_textv
libqucs.so:_Z16touchstone_allocm
libqucs.so:_Z16zvr__scan_bufferPcm
libqucs.so:_Z16zvr__scan_stringPKc
libqucs.so:_Z17citi__scan_bufferPcm
libqucs.so:_Z17citi__scan_stringPKc
libqucs.so:_Z17csv__flush_bufferP15yy_buffer_state
libqucs.so:_Z17dataset_get_debugv
libqucs.so:_Z17dataset_set_debugi
libqucs.so:_Z17disableMicrostripPN4qucs7circuitES1_PNS_3netEi
libqucs.so:_Z17mdl__flush_bufferP15yy_buffer_state
libqucs.so:_Z17netlist_get_debugv
libqucs.so:_Z17netlist_set_debugi
libqucs.so:_Z17touchstone_get_inv
libqucs.so:_Z17touchstone_set_inP8_IO_FILE
libqucs.so:_Z17zvr__flush_bufferP15yy_buffer_state
libqucs.so:_Z18citi__flush_bufferP15yy_buffer_state
libqucs.so:_Z18csv__create_bufferP8_IO_FILEi
libqucs.so:_Z18csv__delete_bufferP15yy_buffer_state
libqucs.so:_Z18dataset_get_linenov
libqucs.so:_Z18dataset_set_linenoi
libqucs.so:_Z18mdl__create_bufferP8_IO_FILEi
libqucs.so:_Z18mdl__delete_bufferP15yy_buffer_state
libqucs.so:_Z18netlist_get_linenov
libqucs.so:_Z18netlist_set_linenoi
libqucs.so:_Z18touchstone_get_outv
libqucs.so:_Z18touchstone_reallocPvm
libqucs.so:_Z18touchstone_restartP8_IO_FILE
libqucs.so:_Z18touchstone_set_outP8_IO_FILE
libqucs.so:_Z18zvr__create_bufferP8_IO_FILEi
libqucs.so:_Z18zvr__delete_bufferP15yy_buffer_state
libqucs.so:_Z19citi__create_bufferP8_IO_FILEi
libqucs.so:_Z19citi__delete_bufferP15yy_buffer_state
libqucs.so:_Z19dataset__scan_bytesPKci
libqucs.so:_Z19mdl_find_depdatasetB5cxx11P10mdl_link_tP14mdl_dcontent_tPc
libqucs.so:_Z19netlist__scan_bytesPKci
libqucs.so:_Z19touchstone_get_lengv
libqucs.so:_Z19touchstone_get_textv
libqucs.so:_Z20csv_pop_buffer_statev
libqucs.so:_Z20dataset__scan_bufferPcm
libqucs.so:_Z20dataset__scan_stringPKc
libqucs.so:_Z20mdl_pop_buffer_statev
libqucs.so:_Z20netlist__scan_bufferPcm
libqucs.so:_Z20netlist__scan_stringPKc
libqucs.so:_Z20touchstone_get_debugv
libqucs.so:_Z20touchstone_set_debugi
libqucs.so:_Z20zvr_pop_buffer_statev
libqucs.so:_Z21citi_pop_buffer_statev
libqucs.so:_Z21csv__switch_to_bufferP15yy_buffer_state
libqucs.so:_Z21csv_push_buffer_stateP15yy_buffer_state
libqucs.so:_Z21dataset__flush_bufferP15yy_buffer_state
libqucs.so:_Z21mdl__switch_to_bufferP15yy_buffer_state
libqucs.so:_Z21mdl_find_syncdatasetsP10mdl_sync_t
libqucs.so:_Z21mdl_push_buffer_stateP15yy_buffer_state
libqucs.so:_Z21netlist__flush_bufferP15yy_buffer_state
libqucs.so:_Z21netlist_reverse_nodesP6node_t
libqucs.so:_Z21touchstone_get_linenov
libqucs.so:_Z21touchstone_set_linenoi
libqucs.so:_Z21zvr__switch_to_bufferP15yy_buffer_state
libqucs.so:_Z21zvr_push_buffer_stateP15yy_buffer_state
libqucs.so:_Z22citi__switch_to_bufferP15yy_buffer_state
libqucs.so:_Z22citi_push_buffer_stateP15yy_buffer_state
libqucs.so:_Z22dataset__create_bufferP8_IO_FILEi
libqucs.so:_Z22dataset__delete_bufferP15yy_buffer_state
libqucs.so:_Z22netlist__create_bufferP8_IO_FILEi
libqucs.so:_Z22netlist__delete_bufferP15yy_buffer_state
libqucs.so:_Z22touchstone__scan_bytesPKci
libqucs.so:_Z23touchstone__scan_bufferPcm
libqucs.so:_Z23touchstone__scan_stringPKc
libqucs.so:_Z24dataset_pop_buffer_statev
libqucs.so:_Z24netlist_pop_buffer_statev
libqucs.so:_Z24touchstone__flush_bufferP15yy_buffer_state
libqucs.so:_Z25dataset__switch_to_bufferP15yy_buffer_state
libqucs.so:_Z25dataset_push_buffer_stateP15yy_buffer_state
libqucs.so:_Z25netlist__switch_to_bufferP15yy_buffer_state
libqucs.so:_Z25netlist_push_buffer_stateP15yy_buffer_state
libqucs.so:_Z25touchstone__create_bufferP8_IO_FILEi
libqucs.so:_Z25touchstone__delete_bufferP15yy_buffer_state
libqucs.so:_Z27touchstone_pop_buffer_statev
libqucs.so:_Z28touchstone__switch_to_bufferP15yy_buffer_state
libqucs.so:_Z28touchstone_push_buffer_stateP15yy_buffer_state
libqucs.so:_Z7dl_listB5cxx11
libqucs.so:_Z8csv_freePv
libqucs.so:_Z8mdl_freePv
libqucs.so:_Z8zvr_freePv
libqucs.so:_Z9citi_freePv
libqucs.so:_Z9csv_allocm
libqucs.so:_Z9mdl_allocm
libqucs.so:_Z9zvr_allocm
libqucs.so:_ZN10attenuator11calcNoiseACEd
libqucs.so:_ZN10attenuator11calcNoiseSPEd
libqucs.so:_ZN10attenuator6cirdefE
libqucs.so:_ZN10attenuator6initACEv
libqucs.so:_ZN10attenuator6initDCEv
libqucs.so:_ZN10attenuator6initSPEv
libqucs.so:_ZN10attenuator6initTREv
libqucs.so:_ZN10attenuatorC1Ev
libqucs.so:_ZN10attenuatorC2Ev
libqucs.so:_ZN10circulator6calcSPEd
libqucs.so:_ZN10circulator6cirdefE
libqucs.so:_ZN10circulator6initACEv
libqucs.so:_ZN10circulator6initDCEv
libqucs.so:_ZN10circulator6initTREv
libqucs.so:_ZN10circulatorC1Ev
libqucs.so:_ZN10circulatorC2Ev
libqucs.so:_ZN10digisource6calcTREd
libqucs.so:_ZN10digisource6cirdefE
libqucs.so:_ZN10digisource6initACEv
libqucs.so:_ZN10digisource6initDCEv
libqucs.so:_ZN10digisource6initSPEv
libqucs.so:_ZN10digisource6initTREv
libqucs.so:_ZN10digisourceC1Ev
libqucs.so:_ZN10digisourceC2Ev
libqucs.so:_ZN10eqndefined11calcMatrixYEd
libqucs.so:_ZN10eqndefined12updateLocalsEv
libqucs.so:_ZN10eqndefined14createVariableEPKcib
libqucs.so:_ZN10eqndefined14createVariableEPKciib
libqucs.so:_ZN10eqndefined19evalOperatingPointsEv
libqucs.so:_ZN10eqndefined19saveOperatingPointsEv
libqucs.so:_ZN10eqndefined6calcACEd
libqucs.so:_ZN10eqndefined6calcDCEv
libqucs.so:_ZN10eqndefined6calcHBEi
libqucs.so:_ZN10eqndefined6calcSPEd
libqucs.so:_ZN10eqndefined6calcTREd
libqucs.so:_ZN10eqndefined6cirdefE
libqucs.so:_ZN10eqndefined6initACEv
libqucs.so:_ZN10eqndefined6initDCEv
libqucs.so:_ZN10eqndefined6initHBEi
libqucs.so:_ZN10eqndefined6initSPEv
libqucs.so:_ZN10eqndefined6initTREv
libqucs.so:_ZN10eqndefined9getResultEPv
libqucs.so:_ZN10eqndefined9initModelEv
libqucs.so:_ZN10eqndefined9setResultEPvd
libqucs.so:_ZN10eqndefinedC1Ev
libqucs.so:_ZN10eqndefinedC2Ev
libqucs.so:_ZN10eqndefinedD0Ev
libqucs.so:_ZN10eqndefinedD1Ev
libqucs.so:_ZN10eqndefinedD2Ev
libqucs.so:_ZN10photodiode11calcMatrixYEd
libqucs.so:_ZN10photodiode11calcNoiseACEd
libqucs.so:_ZN10photodiode11calcNoiseSPEd
libqucs.so:_ZN10photodiode11calcVerilogEv
libqucs.so:_ZN10photodiode11initVerilogEv
libqucs.so:_ZN10photodiode11initialStepEv
libqucs.so:_ZN10photodiode12calcMatrixCyEd
libqucs.so:_ZN10photodiode13loadVariablesEv
libqucs.so:_ZN10photodiode15initializeModelEv
libqucs.so:_ZN10photodiode18initializeInstanceEv
libqucs.so:_ZN10photodiode19calcOperatingPointsEv
libqucs.so:_ZN10photodiode19loadOperatingPointsEv
libqucs.so:_ZN10photodiode19saveOperatingPointsEv
libqucs.so:_ZN10photodiode6calcACEd
libqucs.so:_ZN10photodiode6calcDCEv
libqucs.so:_ZN10photodiode6calcHBEi
libqucs.so:_ZN10photodiode6calcSPEd
libqucs.so:_ZN10photodiode6calcTREd
libqucs.so:_ZN10photodiode6cirdefE
libqucs.so:_ZN10photodiode6initACEv
libqucs.so:_ZN10photodiode6initDCEv
libqucs.so:_ZN10photodiode6initHBEi
libqucs.so:_ZN10photodiode6initSPEv
libqucs.so:_ZN10photodiode6initTREv
libqucs.so:_ZN10photodiode9finalStepEv
libqucs.so:_ZN10photodiode9initModelEv
libqucs.so:_ZN10photodiode9restartDCEv
libqucs.so:_ZN10photodiodeC1Ev
libqucs.so:_ZN10photodiodeC2Ev
libqucs.so:_ZN10vcresistor11calcMatrixYEd
libqucs.so:_ZN10vcresistor11calcNoiseACEd
libqucs.so:_ZN10vcresistor11calcNoiseSPEd
libqucs.so:_ZN10vcresistor11calcVerilogEv
libqucs.so:_ZN10vcresistor11initVerilogEv
libqucs.so:_ZN10vcresistor11initialStepEv
libqucs.so:_ZN10vcresistor12calcMatrixCyEd
libqucs.so:_ZN10vcresistor13loadVariablesEv
libqucs.so:_ZN10vcresistor15initializeModelEv
libqucs.so:_ZN10vcresistor18initializeInstanceEv
libqucs.so:_ZN10vcresistor19calcOperatingPointsEv
libqucs.so:_ZN10vcresistor19loadOperatingPointsEv
libqucs.so:_ZN10vcresistor19saveOperatingPointsEv
libqucs.so:_ZN10vcresistor6calcACEd
libqucs.so:_ZN10vcresistor6calcDCEv
libqucs.so:_ZN10vcresistor6calcHBEi
libqucs.so:_ZN10vcresistor6calcSPEd
libqucs.so:_ZN10vcresistor6calcTREd
libqucs.so:_ZN10vcresistor6cirdefE
libqucs.so:_ZN10vcresistor6initACEv
libqucs.so:_ZN10vcresistor6initDCEv
libqucs.so:_ZN10vcresistor6initHBEi
libqucs.so:_ZN10vcresistor6initSPEv
libqucs.so:_ZN10vcresistor6initTREv
libqucs.so:_ZN10vcresistor9finalStepEv
libqucs.so:_ZN10vcresistor9initModelEv
libqucs.so:_ZN10vcresistor9restartDCEv
libqucs.so:_ZN10vcresistorC1Ev
libqucs.so:_ZN10vcresistorC2Ev
libqucs.so:_ZN11gatedDlatch11calcMatrixYEd
libqucs.so:_ZN11gatedDlatch11calcNoiseACEd
libqucs.so:_ZN11gatedDlatch11calcNoiseSPEd
libqucs.so:_ZN11gatedDlatch11calcVerilogEv
libqucs.so:_ZN11gatedDlatch11initVerilogEv
libqucs.so:_ZN11gatedDlatch11initialStepEv
libqucs.so:_ZN11gatedDlatch12calcMatrixCyEd
libqucs.so:_ZN11gatedDlatch13loadVariablesEv
libqucs.so:_ZN11gatedDlatch15initializeModelEv
libqucs.so:_ZN11gatedDlatch18initializeInstanceEv
libqucs.so:_ZN11gatedDlatch19calcOperatingPointsEv
libqucs.so:_ZN11gatedDlatch19loadOperatingPointsEv
libqucs.so:_ZN11gatedDlatch19saveOperatingPointsEv
libqucs.so:_ZN11gatedDlatch6calcACEd
libqucs.so:_ZN11gatedDlatch6calcDCEv
libqucs.so:_ZN11gatedDlatch6calcHBEi
libqucs.so:_ZN11gatedDlatch6calcSPEd
libqucs.so:_ZN11gatedDlatch6calcTREd
libqucs.so:_ZN11gatedDlatch6cirdefE
libqucs.so:_ZN11gatedDlatch6initACEv
libqucs.so:_ZN11gatedDlatch6initDCEv
libqucs.so:_ZN11gatedDlatch6initHBEi
libqucs.so:_ZN11gatedDlatch6initSPEv
libqucs.so:_ZN11gatedDlatch6initTREv
libqucs.so:_ZN11gatedDlatch9finalStepEv
libqucs.so:_ZN11gatedDlatch9initModelEv
libqucs.so:_ZN11gatedDlatch9restartDCEv
libqucs.so:_ZN11gatedDlatchC1Ev
libqucs.so:_ZN11gatedDlatchC2Ev
libqucs.so:_ZN11hpribin4bit11calcMatrixYEd
libqucs.so:_ZN11hpribin4bit11calcNoiseACEd
libqucs.so:_ZN11hpribin4bit11calcNoiseSPEd
libqucs.so:_ZN11hpribin4bit11calcVerilogEv
libqucs.so:_ZN11hpribin4bit11initVerilogEv
libqucs.so:_ZN11hpribin4bit11initialStepEv
libqucs.so:_ZN11hpribin4bit12calcMatrixCyEd
libqucs.so:_ZN11hpribin4bit13loadVariablesEv
libqucs.so:_ZN11hpribin4bit15initializeModelEv
libqucs.so:_ZN11hpribin4bit18initializeInstanceEv
libqucs.so:_ZN11hpribin4bit19calcOperatingPointsEv
libqucs.so:_ZN11hpribin4bit19loadOperatingPointsEv
libqucs.so:_ZN11hpribin4bit19saveOperatingPointsEv
libqucs.so:_ZN11hpribin4bit6calcACEd
libqucs.so:_ZN11hpribin4bit6calcDCEv
libqucs.so:_ZN11hpribin4bit6calcHBEi
libqucs.so:_ZN11hpribin4bit6calcSPEd
libqucs.so:_ZN11hpribin4bit6calcTREd
libqucs.so:_ZN11hpribin4bit6cirdefE
libqucs.so:_ZN11hpribin4bit6initACEv
libqucs.so:_ZN11hpribin4bit6initDCEv
libqucs.so:_ZN11hpribin4bit6initHBEi
libqucs.so:_ZN11hpribin4bit6initSPEv
libqucs.so:_ZN11hpribin4bit6initTREv
libqucs.so:_ZN11hpribin4bit9finalStepEv
libqucs.so:_ZN11hpribin4bit9initModelEv
libqucs.so:_ZN11hpribin4bit9restartDCEv
libqucs.so:_ZN11hpribin4bitC1Ev
libqucs.so:_ZN11hpribin4bitC2Ev
libqucs.so:_ZN11tunneldiode11calcMatrixYEd
libqucs.so:_ZN11tunneldiode19calcOperatingPointsEv
libqucs.so:_ZN11tunneldiode19loadOperatingPointsEv
libqucs.so:_ZN11tunneldiode19saveOperatingPointsEv
libqucs.so:_ZN11tunneldiode6calcACEd
libqucs.so:_ZN11tunneldiode6calcDCEv
libqucs.so:_ZN11tunneldiode6calcIdEdRdS0_
libqucs.so:_ZN11tunneldiode6calcSPEd
libqucs.so:_ZN11tunneldiode6calcTREd
libqucs.so:_ZN11tunneldiode6cirdefE
libqucs.so:_ZN11tunneldiode6initACEv
libqucs.so:_ZN11tunneldiode6initDCEv
libqucs.so:_ZN11tunneldiode6initTREv
libqucs.so:_ZN11tunneldiodeC1Ev
libqucs.so:_ZN11tunneldiodeC2Ev
libqucs.so:_ZN11twistedpair10calcLengthEv
libqucs.so:_ZN11twistedpair11calcNoiseACEd
libqucs.so:_ZN11twistedpair11calcNoiseSPEd
libqucs.so:_ZN11twistedpair15calcPropagationEd
libqucs.so:_ZN11twistedpair19saveCharacteristicsEd
libqucs.so:_ZN11twistedpair6calcACEd
libqucs.so:_ZN11twistedpair6calcSPEd
libqucs.so:_ZN11twistedpair6cirdefE
libqucs.so:_ZN11twistedpair6initACEv
libqucs.so:_ZN11twistedpair6initDCEv
libqucs.so:_ZN11twistedpair6initSPEv
libqucs.so:_ZN11twistedpair6initTREv
libqucs.so:_ZN11twistedpair8calcLossEd
libqucs.so:_ZN11twistedpairC1Ev
libqucs.so:_ZN11twistedpairC2Ev
libqucs.so:_ZN12phaseshifter6cirdefE
libqucs.so:_ZN12phaseshifter6initACEv
libqucs.so:_ZN12phaseshifter6initDCEv
libqucs.so:_ZN12phaseshifter6initSPEv
libqucs.so:_ZN12phaseshifterC1Ev
libqucs.so:_ZN12phaseshifterC2Ev
libqucs.so:_ZN13potentiometer11calcMatrixYEd
libqucs.so:_ZN13potentiometer11calcNoiseACEd
libqucs.so:_ZN13potentiometer11calcNoiseSPEd
libqucs.so:_ZN13potentiometer11calcVerilogEv
libqucs.so:_ZN13potentiometer11initVerilogEv
libqucs.so:_ZN13potentiometer11initialStepEv
libqucs.so:_ZN13potentiometer12calcMatrixCyEd
libqucs.so:_ZN13potentiometer13loadVariablesEv
libqucs.so:_ZN13potentiometer15initializeModelEv
libqucs.so:_ZN13potentiometer18initializeInstanceEv
libqucs.so:_ZN13potentiometer19calcOperatingPointsEv
libqucs.so:_ZN13potentiometer19loadOperatingPointsEv
libqucs.so:_ZN13potentiometer19saveOperatingPointsEv
libqucs.so:_ZN13potentiometer6calcACEd
libqucs.so:_ZN13potentiometer6calcDCEv
libqucs.so:_ZN13potentiometer6calcHBEi
libqucs.so:_ZN13potentiometer6calcSPEd
libqucs.so:_ZN13potentiometer6calcTREd
libqucs.so:_ZN13potentiometer6cirdefE
libqucs.so:_ZN13potentiometer6initACEv
libqucs.so:_ZN13potentiometer6initDCEv
libqucs.so:_ZN13potentiometer6initHBEi
libqucs.so:_ZN13potentiometer6initSPEv
libqucs.so:_ZN13potentiometer6initTREv
libqucs.so:_ZN13potentiometer9finalStepEv
libqucs.so:_ZN13potentiometer9initModelEv
libqucs.so:_ZN13potentiometer9restartDCEv
libqucs.so:_ZN13potentiometerC1Ev
libqucs.so:_ZN13potentiometerC2Ev
libqucs.so:_ZN13spfile_vector11interpolateEd
libqucs.so:_ZN13spfile_vector7prepareEPN4qucs6vectorES2_bii
libqucs.so:_ZN13spfile_vectorC1Ev
libqucs.so:_ZN13spfile_vectorC2Ev
libqucs.so:_ZN13spfile_vectorD1Ev
libqucs.so:_ZN13spfile_vectorD2Ev
libqucs.so:_ZN15phototransistor11calcMatrixYEd
libqucs.so:_ZN15phototransistor11calcNoiseACEd
libqucs.so:_ZN15phototransistor11calcNoiseSPEd
libqucs.so:_ZN15phototransistor11calcVerilogEv
libqucs.so:_ZN15phototransistor11initVerilogEv
libqucs.so:_ZN15phototransistor11initialStepEv
libqucs.so:_ZN15phototransistor12calcMatrixCyEd
libqucs.so:_ZN15phototransistor13loadVariablesEv
libqucs.so:_ZN15phototransistor15initializeModelEv
libqucs.so:_ZN15phototransistor18initializeInstanceEv
libqucs.so:_ZN15phototransistor19calcOperatingPointsEv
libqucs.so:_ZN15phototransistor19loadOperatingPointsEv
libqucs.so:_ZN15phototransistor19saveOperatingPointsEv
libqucs.so:_ZN15phototransistor6calcACEd
libqucs.so:_ZN15phototransistor6calcDCEv
libqucs.so:_ZN15phototransistor6calcHBEi
libqucs.so:_ZN15phototransistor6calcSPEd
libqucs.so:_ZN15phototransistor6calcTREd
libqucs.so:_ZN15phototransistor6cirdefE
libqucs.so:_ZN15phototransistor6initACEv
libqucs.so:_ZN15phototransistor6initDCEv
libqucs.so:_ZN15phototransistor6initHBEi
libqucs.so:_ZN15phototransistor6initSPEv
libqucs.so:_ZN15phototransistor6initTREv
libqucs.so:_ZN15phototransistor9finalStepEv
libqucs.so:_ZN15phototransistor9initModelEv
libqucs.so:_ZN15phototransistor9restartDCEv
libqucs.so:_ZN15phototransistorC1Ev
libqucs.so:_ZN15phototransistorC2Ev
libqucs.so:_ZN16binarytogrey4bit11calcMatrixYEd
libqucs.so:_ZN16binarytogrey4bit11calcNoiseACEd
libqucs.so:_ZN16binarytogrey4bit11calcNoiseSPEd
libqucs.so:_ZN16binarytogrey4bit11calcVerilogEv
libqucs.so:_ZN16binarytogrey4bit11initVerilogEv
libqucs.so:_ZN16binarytogrey4bit11initialStepEv
libqucs.so:_ZN16binarytogrey4bit12calcMatrixCyEd
libqucs.so:_ZN16binarytogrey4bit13loadVariablesEv
libqucs.so:_ZN16binarytogrey4bit15initializeModelEv
libqucs.so:_ZN16binarytogrey4bit18initializeInstanceEv
libqucs.so:_ZN16binarytogrey4bit19calcOperatingPointsEv
libqucs.so:_ZN16binarytogrey4bit19loadOperatingPointsEv
libqucs.so:_ZN16binarytogrey4bit19saveOperatingPointsEv
libqucs.so:_ZN16binarytogrey4bit6calcACEd
libqucs.so:_ZN16binarytogrey4bit6calcDCEv
libqucs.so:_ZN16binarytogrey4bit6calcHBEi
libqucs.so:_ZN16binarytogrey4bit6calcSPEd
libqucs.so:_ZN16binarytogrey4bit6calcTREd
libqucs.so:_ZN16binarytogrey4bit6cirdefE
libqucs.so:_ZN16binarytogrey4bit6initACEv
libqucs.so:_ZN16binarytogrey4bit6initDCEv
libqucs.so:_ZN16binarytogrey4bit6initHBEi
libqucs.so:_ZN16binarytogrey4bit6initSPEv
libqucs.so:_ZN16binarytogrey4bit6initTREv
libqucs.so:_ZN16binarytogrey4bit9finalStepEv
libqucs.so:_ZN16binarytogrey4bit9initModelEv
libqucs.so:_ZN16binarytogrey4bit9restartDCEv
libqucs.so:_ZN16binarytogrey4bitC1Ev
libqucs.so:_ZN16binarytogrey4bitC2Ev
libqucs.so:_ZN16greytobinary4bit11calcMatrixYEd
libqucs.so:_ZN16greytobinary4bit11calcNoiseACEd
libqucs.so:_ZN16greytobinary4bit11calcNoiseSPEd
libqucs.so:_ZN16greytobinary4bit11calcVerilogEv
libqucs.so:_ZN16greytobinary4bit11initVerilogEv
libqucs.so:_ZN16greytobinary4bit11initialStepEv
libqucs.so:_ZN16greytobinary4bit12calcMatrixCyEd
libqucs.so:_ZN16greytobinary4bit13loadVariablesEv
libqucs.so:_ZN16greytobinary4bit15initializeModelEv
libqucs.so:_ZN16greytobinary4bit18initializeInstanceEv
libqucs.so:_ZN16greytobinary4bit19calcOperatingPointsEv
libqucs.so:_ZN16greytobinary4bit19loadOperatingPointsEv
libqucs.so:_ZN16greytobinary4bit19saveOperatingPointsEv
libqucs.so:_ZN16greytobinary4bit6calcACEd
libqucs.so:_ZN16greytobinary4bit6calcDCEv
libqucs.so:_ZN16greytobinary4bit6calcHBEi
libqucs.so:_ZN16greytobinary4bit6calcSPEd
libqucs.so:_ZN16greytobinary4bit6calcTREd
libqucs.so:_ZN16greytobinary4bit6cirdefE
libqucs.so:_ZN16greytobinary4bit6initACEv
libqucs.so:_ZN16greytobinary4bit6initDCEv
libqucs.so:_ZN16greytobinary4bit6initHBEi
libqucs.so:_ZN16greytobinary4bit6initSPEv
libqucs.so:_ZN16greytobinary4bit6initTREv
libqucs.so:_ZN16greytobinary4bit9finalStepEv
libqucs.so:_ZN16greytobinary4bit9initModelEv
libqucs.so:_ZN16greytobinary4bit9restartDCEv
libqucs.so:_ZN16greytobinary4bitC1Ev
libqucs.so:_ZN16greytobinary4bitC2Ev
libqucs.so:_ZN3bjt11calcMatrixYEd
libqucs.so:_ZN3bjt11calcNoiseACEd
libqucs.so:_ZN3bjt11calcNoiseSPEd
libqucs.so:_ZN3bjt11excessPhaseEiRdS0_
libqucs.so:_ZN3bjt11processCbcxEv
libqucs.so:_ZN3bjt12calcMatrixCyEd
libqucs.so:_ZN3bjt19calcOperatingPointsEv
libqucs.so:_ZN3bjt19loadOperatingPointsEv
libqucs.so:_ZN3bjt19saveOperatingPointsEv
libqucs.so:_ZN3bjt6calcACEd
libqucs.so:_ZN3bjt6calcDCEv
libqucs.so:_ZN3bjt6calcSPEd
libqucs.so:_ZN3bjt6calcTREd
libqucs.so:_ZN3bjt6cirdefE
libqucs.so:_ZN3bjt6initACEv
libqucs.so:_ZN3bjt6initDCEv
libqucs.so:_ZN3bjt6initSPEv
libqucs.so:_ZN3bjt6initTREv
libqucs.so:_ZN3bjt9initModelEv
libqucs.so:_ZN3bjt9restartDCEv
libqucs.so:_ZN3bjtC1Ev
libqucs.so:_ZN3bjtC2Ev
libqucs.so:_ZN3iac6calcTREd
libqucs.so:_ZN3iac6cirdefE
libqucs.so:_ZN3iac6initACEv
libqucs.so:_ZN3iac6initDCEv
libqucs.so:_ZN3iac6initSPEv
libqucs.so:_ZN3iacC1Ev
libqucs.so:_ZN3iacC2Ev
libqucs.so:_ZN3idc6calcDCEv
libqucs.so:_ZN3idc6cirdefE
libqucs.so:_ZN3idc6initACEv
libqucs.so:_ZN3idc6initDCEv
libqucs.so:_ZN3idc6initSPEv
libqucs.so:_ZN3idc6initTREv
libqucs.so:_ZN3idcC1Ev
libqucs.so:_ZN3idcC2Ev
libqucs.so:_ZN3pac11calcNoiseACEd
libqucs.so:_ZN3pac11calcNoiseSPEd
libqucs.so:_ZN3pac6calcACEd
libqucs.so:_ZN3pac6calcDCEv
libqucs.so:_ZN3pac6calcHBEd
libqucs.so:_ZN3pac6calcSPEd
libqucs.so:_ZN3pac6calcTREd
libqucs.so:_ZN3pac6cirdefE
libqucs.so:_ZN3pac6initHBEv
libqucs.so:_ZN3pacC1Ev
libqucs.so:_ZN3pacC2Ev
libqucs.so:_ZN3tee6initACEv
libqucs.so:_ZN3tee6initDCEv
libqucs.so:_ZN3tee6initSPEv
libqucs.so:_ZN3tee6initTREv
libqucs.so:_ZN3teeC1Ev
libqucs.so:_ZN3teeC2Ev
libqucs.so:_ZN3vac6calcHBEd
libqucs.so:_ZN3vac6calcTREd
libqucs.so:_ZN3vac6cirdefE
libqucs.so:_ZN3vac6initACEv
libqucs.so:_ZN3vac6initDCEv
libqucs.so:_ZN3vac6initHBEv
libqucs.so:_ZN3vac6initSPEv
libqucs.so:_ZN3vac6initTREv
libqucs.so:_ZN3vacC1Ev
libqucs.so:_ZN3vacC2Ev
libqucs.so:_ZN3vam6calcTREd
libqucs.so:_ZN3vam6cirdefE
libqucs.so:_ZN3vam6initACEv
libqucs.so:_ZN3vam6initDCEv
libqucs.so:_ZN3vam6initSPEv
libqucs.so:_ZN3vam6initTREv
libqucs.so:_ZN3vamC1Ev
libqucs.so:_ZN3vamC2Ev
libqucs.so:_ZN3vdc6calcDCEv
libqucs.so:_ZN3vdc6calcHBEd
libqucs.so:_ZN3vdc6cirdefE
libqucs.so:_ZN3vdc6initACEv
libqucs.so:_ZN3vdc6initDCEv
libqucs.so:_ZN3vdc6initHBEv
libqucs.so:_ZN3vdc6initSPEv
libqucs.so:_ZN3vdc6initTREv
libqucs.so:_ZN3vdcC1Ev
libqucs.so:_ZN3vdcC2Ev
libqucs.so:_ZN3vpm6calcTREd
libqucs.so:_ZN3vpm6cirdefE
libqucs.so:_ZN3vpm6initACEv
libqucs.so:_ZN3vpm6initDCEv
libqucs.so:_ZN3vpm6initSPEv
libqucs.so:_ZN3vpm6initTREv
libqucs.so:_ZN3vpmC1Ev
libqucs.so:_ZN3vpmC2Ev
libqucs.so:_ZN4cccs6calcACEd
libqucs.so:_ZN4cccs6calcSPEd
libqucs.so:_ZN4cccs6calcTREd
libqucs.so:_ZN4cccs6cirdefE
libqucs.so:_ZN4cccs6initACEv
libqucs.so:_ZN4cccs6initDCEv
libqucs.so:_ZN4cccs6initTREv
libqucs.so:_ZN4cccsC1Ev
libqucs.so:_ZN4cccsC2Ev
libqucs.so:_ZN4ccvs6calcACEd
libqucs.so:_ZN4ccvs6calcSPEd
libqucs.so:_ZN4ccvs6calcTREd
libqucs.so:_ZN4ccvs6cirdefE
libqucs.so:_ZN4ccvs6initACEv
libqucs.so:_ZN4ccvs6initDCEv
libqucs.so:_ZN4ccvs6initTREv
libqucs.so:_ZN4ccvsC1Ev
libqucs.so:_ZN4ccvsC2Ev
libqucs.so:_ZN4diac11calcMatrixYEd
libqucs.so:_ZN4diac12calcTheModelEb
libqucs.so:_ZN4diac19calcOperatingPointsEv
libqucs.so:_ZN4diac19loadOperatingPointsEv
libqucs.so:_ZN4diac19saveOperatingPointsEv
libqucs.so:_ZN4diac6calcACEd
libqucs.so:_ZN4diac6calcDCEv
libqucs.so:_ZN4diac6calcSPEd
libqucs.so:_ZN4diac6calcTREd
libqucs.so:_ZN4diac6cirdefE
libqucs.so:_ZN4diac6initACEv
libqucs.so:_ZN4diac6initDCEv
libqucs.so:_ZN4diac6initTREv
libqucs.so:_ZN4diacC1Ev
libqucs.so:_ZN4diacC2Ev
libqucs.so:_ZN4ecvs6calcTREd
libqucs.so:_ZN4ecvs6cirdefE
libqucs.so:_ZN4ecvs6initACEv
libqucs.so:_ZN4ecvs6initDCEv
libqucs.so:_ZN4ecvs6initSPEv
libqucs.so:_ZN4ecvs6initTREv
libqucs.so:_ZN4ecvsC1Ev
libqucs.so:_ZN4ecvsC2Ev
libqucs.so:_ZN4fa1b11calcMatrixYEd
libqucs.so:_ZN4fa1b11calcNoiseACEd
libqucs.so:_ZN4fa1b11calcNoiseSPEd
libqucs.so:_ZN4fa1b11calcVerilogEv
libqucs.so:_ZN4fa1b11initVerilogEv
libqucs.so:_ZN4fa1b11initialStepEv
libqucs.so:_ZN4fa1b12calcMatrixCyEd
libqucs.so:_ZN4fa1b13loadVariablesEv
libqucs.so:_ZN4fa1b15initializeModelEv
libqucs.so:_ZN4fa1b18initializeInstanceEv
libqucs.so:_ZN4fa1b19calcOperatingPointsEv
libqucs.so:_ZN4fa1b19loadOperatingPointsEv
libqucs.so:_ZN4fa1b19saveOperatingPointsEv
libqucs.so:_ZN4fa1b6calcACEd
libqucs.so:_ZN4fa1b6calcDCEv
libqucs.so:_ZN4fa1b6calcHBEi
libqucs.so:_ZN4fa1b6calcSPEd
libqucs.so:_ZN4fa1b6calcTREd
libqucs.so:_ZN4fa1b6cirdefE
libqucs.so:_ZN4fa1b6initACEv
libqucs.so:_ZN4fa1b6initDCEv
libqucs.so:_ZN4fa1b6initHBEi
libqucs.so:_ZN4fa1b6initSPEv
libqucs.so:_ZN4fa1b6initTREv
libqucs.so:_ZN4fa1b9finalStepEv
libqucs.so:_ZN4fa1b9initModelEv
libqucs.so:_ZN4fa1b9restartDCEv
libqucs.so:_ZN4fa1bC1Ev
libqucs.so:_ZN4fa1bC2Ev
libqucs.so:_ZN4fa2b11calcMatrixYEd
libqucs.so:_ZN4fa2b11calcNoiseACEd
libqucs.so:_ZN4fa2b11calcNoiseSPEd
libqucs.so:_ZN4fa2b11calcVerilogEv
libqucs.so:_ZN4fa2b11initVerilogEv
libqucs.so:_ZN4fa2b11initialStepEv
libqucs.so:_ZN4fa2b12calcMatrixCyEd
libqucs.so:_ZN4fa2b13loadVariablesEv
libqucs.so:_ZN4fa2b15initializeModelEv
libqucs.so:_ZN4fa2b18initializeInstanceEv
libqucs.so:_ZN4fa2b19calcOperatingPointsEv
libqucs.so:_ZN4fa2b19loadOperatingPointsEv
libqucs.so:_ZN4fa2b19saveOperatingPointsEv
libqucs.so:_ZN4fa2b6calcACEd
libqucs.so:_ZN4fa2b6calcDCEv
libqucs.so:_ZN4fa2b6calcHBEi
libqucs.so:_ZN4fa2b6calcSPEd
libqucs.so:_ZN4fa2b6calcTREd
libqucs.so:_ZN4fa2b6cirdefE
libqucs.so:_ZN4fa2b6initACEv
libqucs.so:_ZN4fa2b6initDCEv
libqucs.so:_ZN4fa2b6initHBEi
libqucs.so:_ZN4fa2b6initSPEv
libqucs.so:_ZN4fa2b6initTREv
libqucs.so:_ZN4fa2b9finalStepEv
libqucs.so:_ZN4fa2b9initModelEv
libqucs.so:_ZN4fa2b9restartDCEv
libqucs.so:_ZN4fa2bC1Ev
libqucs.so:_ZN4fa2bC2Ev
libqucs.so:_ZN4ha1b11calcMatrixYEd
libqucs.so:_ZN4ha1b11calcNoiseACEd
libqucs.so:_ZN4ha1b11calcNoiseSPEd
libqucs.so:_ZN4ha1b11calcVerilogEv
libqucs.so:_ZN4ha1b11initVerilogEv
libqucs.so:_ZN4ha1b11initialStepEv
libqucs.so:_ZN4ha1b12calcMatrixCyEd
libqucs.so:_ZN4ha1b13loadVariablesEv
libqucs.so:_ZN4ha1b15initializeModelEv
libqucs.so:_ZN4ha1b18initializeInstanceEv
libqucs.so:_ZN4ha1b19calcOperatingPointsEv
libqucs.so:_ZN4ha1b19loadOperatingPointsEv
libqucs.so:_ZN4ha1b19saveOperatingPointsEv
libqucs.so:_ZN4ha1b6calcACEd
libqucs.so:_ZN4ha1b6calcDCEv
libqucs.so:_ZN4ha1b6calcHBEi
libqucs.so:_ZN4ha1b6calcSPEd
libqucs.so:_ZN4ha1b6calcTREd
libqucs.so:_ZN4ha1b6cirdefE
libqucs.so:_ZN4ha1b6initACEv
libqucs.so:_ZN4ha1b6initDCEv
libqucs.so:_ZN4ha1b6initHBEi
libqucs.so:_ZN4ha1b6initSPEv
libqucs.so:_ZN4ha1b6initTREv
libqucs.so:_ZN4ha1b9finalStepEv
libqucs.so:_ZN4ha1b9initModelEv
libqucs.so:_ZN4ha1b9restartDCEv
libqucs.so:_ZN4ha1bC1Ev
libqucs.so:_ZN4ha1bC2Ev
libqucs.so:_ZN4iexp6calcTREd
libqucs.so:_ZN4iexp6cirdefE
libqucs.so:_ZN4iexp6initACEv
libqucs.so:_ZN4iexp6initDCEv
libqucs.so:_ZN4iexp6initSPEv
libqucs.so:_ZN4iexp6initTREv
libqucs.so:_ZN4iexpC1Ev
libqucs.so:_ZN4iexpC2Ev
libqucs.so:_ZN4jfet11calcMatrixYEd
libqucs.so:_ZN4jfet11calcNoiseACEd
libqucs.so:_ZN4jfet11calcNoiseSPEd
libqucs.so:_ZN4jfet12calcMatrixCyEd
libqucs.so:_ZN4jfet19calcOperatingPointsEv
libqucs.so:_ZN4jfet19loadOperatingPointsEv
libqucs.so:_ZN4jfet19saveOperatingPointsEv
libqucs.so:_ZN4jfet6calcACEd
libqucs.so:_ZN4jfet6calcDCEv
libqucs.so:_ZN4jfet6calcSPEd
libqucs.so:_ZN4jfet6calcTREd
libqucs.so:_ZN4jfet6cirdefE
libqucs.so:_ZN4jfet6initACEv
libqucs.so:_ZN4jfet6initDCEv
libqucs.so:_ZN4jfet6initTREv
libqucs.so:_ZN4jfet9initModelEv
libqucs.so:_ZN4jfet9restartDCEv
libqucs.so:_ZN4jfetC1Ev
libqucs.so:_ZN4jfetC2Ev
libqucs.so:_ZN4open6initSPEv
libqucs.so:_ZN4openC1Ev
libqucs.so:_ZN4openC2Ev
libqucs.so:_ZN4qucs10detLaplaceENS_6matrixE
libqucs.so:_ZN4qucs10e_trsolver10getIProbeIEPcRd
libqucs.so:_ZN4qucs10e_trsolver10getJacColsEv
libqucs.so:_ZN4qucs10e_trsolver10getJacDataEiiRd
libqucs.so:_ZN4qucs10e_trsolver10getJacRowsEv
libqucs.so:_ZN4qucs10e_trsolver10getVProbeVEPcRd
libqucs.so:_ZN4qucs10e_trsolver11getsolutionEPd
libqucs.so:_ZN4qucs10e_trsolver12copySolutionEPPNS_7tvectorIdEES4_
libqucs.so:_ZN4qucs10e_trsolver14setECVSVoltageEPcd
libqucs.so:_ZN4qucs10e_trsolver14stepsolve_syncEd
libqucs.so:_ZN4qucs10e_trsolver15acceptstep_syncEv
libqucs.so:_ZN4qucs10e_trsolver15stepsolve_asyncEd
libqucs.so:_ZN4qucs10e_trsolver15truncateHistoryEd
libqucs.so:_ZN4qucs10e_trsolver16acceptstep_asyncEv
libqucs.so:_ZN4qucs10e_trsolver16adjustDelta_syncEd
libqucs.so:_ZN4qucs10e_trsolver16fillLastSolutionEPNS_7tvectorIdEE
libqucs.so:_ZN4qucs10e_trsolver16rejectstep_asyncEv
libqucs.so:_ZN4qucs10e_trsolver16storeHistoryAgesEv
libqucs.so:_ZN4qucs10e_trsolver17updateHistoryAgesEd
libqucs.so:_ZN4qucs10e_trsolver24updateExternalInterpTimeEd
libqucs.so:_ZN4qucs10e_trsolver4initEddi
libqucs.so:_ZN4qucs10e_trsolver5debugEv
libqucs.so:_ZN4qucs10e_trsolver6anadefE
libqucs.so:_ZN4qucs10e_trsolver6printxEv
libqucs.so:_ZN4qucs10e_trsolver7initETREddi
libqucs.so:_ZN4qucs10e_trsolver8getNodeVEPcRd
libqucs.so:_ZN4qucs10e_trsolverC1EPc
libqucs.so:_ZN4qucs10e_trsolverC1ERS0_
libqucs.so:_ZN4qucs10e_trsolverC1Ev
libqucs.so:_ZN4qucs10e_trsolverC2EPc
libqucs.so:_ZN4qucs10e_trsolverC2ERS0_
libqucs.so:_ZN4qucs10e_trsolverC2Ev
libqucs.so:_ZN4qucs10e_trsolverD0Ev
libqucs.so:_ZN4qucs10e_trsolverD1Ev
libqucs.so:_ZN4qucs10e_trsolverD2Ev
libqucs.so:_ZN4qucs10integrator9conductorEdRd
libqucs.so:_ZN4qucs10integrator9integrateEidRdS1_
libqucs.so:_ZN4qucs10integratorC1ERKS0_
libqucs.so:_ZN4qucs10integratorC1Ev
libqucs.so:_ZN4qucs10integratorC2ERKS0_
libqucs.so:_ZN4qucs10integratorC2Ev
libqucs.so:_ZN4qucs10integratorD1Ev
libqucs.so:_ZN4qucs10integratorD2Ev
libqucs.so:_ZN4qucs11environment11addVariableEPNS_8variableEb
libqucs.so:_ZN4qucs11environment11saveResultsEv
libqucs.so:_ZN4qucs11environment13copyVariablesEPNS_8variableE
libqucs.so:_ZN4qucs11environment13passConstantsEv
libqucs.so:_ZN4qucs11environment14equationSolverEPNS_7datasetE
libqucs.so:_ZN4qucs11environment14equationSolverEv
libqucs.so:_ZN4qucs11environment14fetchConstantsEv
libqucs.so:_ZN4qucs11environment15deleteVariablesEv
libqucs.so:_ZN4qucs11environment16updateReferencesEPS0_
libqucs.so:_ZN4qucs11environment17setDoubleConstantEPKcd
libqucs.so:_ZN4qucs11environment18setDoubleReferenceEPKcPc
libqucs.so:_ZN4qucs11environment4copyERKS0_
libqucs.so:_ZN4qucs11environment8setValueEPcPNS_3eqn8constantE
libqucs.so:_ZN4qucs11environment9findValueEPc
libqucs.so:_ZN4qucs11environment9runSolverEv
libqucs.so:_ZN4qucs11environment9setDoubleEPKcd
libqucs.so:_ZN4qucs11environmentC1ERKNSt7__cxx1112basic_stringIcSt11char_traitsIcESaIcEEE
libqucs.so:_ZN4qucs11environmentC1ERKS0_
libqucs.so:_ZN4qucs11environmentC1Ev
libqucs.so:_ZN4qucs11environmentC2ERKNSt7__cxx1112basic_stringIcSt11char_traitsIcESaIcEEE
libqucs.so:_ZN4qucs11environmentC2ERKS0_
libqucs.so:_ZN4qucs11environmentC2Ev
libqucs.so:_ZN4qucs11environmentD0Ev
libqucs.so:_ZN4qucs11environmentD1Ev
libqucs.so:_ZN4qucs11environmentD2Ev
libqucs.so:_ZN4qucs12gperfapphash3getEPKcm
libqucs.so:_ZN4qucs12interpolator12cinterpolateEd
libqucs.so:_ZN4qucs12interpolator12rinterpolateEd
libqucs.so:_ZN4qucs12interpolator13findIndex_oldEd
libqucs.so:_ZN4qucs12interpolator6linearEddddd
libqucs.so:_ZN4qucs12interpolator7cleanupEv
libqucs.so:_ZN4qucs12interpolator7clinearEdi
libqucs.so:_ZN4qucs12interpolator7prepareEiii
libqucs.so:_ZN4qucs12interpolator7rlinearEdi
libqucs.so:_ZN4qucs12interpolator7vectorsEPSt7complexIdEPdi
libqucs.so:_ZN4qucs12interpolator7vectorsEPdS1_i
libqucs.so:_ZN4qucs12interpolator8cvectorsEPNS_6vectorES2_
libqucs.so:_ZN4qucs12interpolator8rvectorsEPNS_6vectorES2_
libqucs.so:_ZN4qucs12interpolator9findIndexEd
libqucs.so:_ZN4qucs12interpolatorC1Ev
libqucs.so:_ZN4qucs12interpolatorC2Ev
libqucs.so:_ZN4qucs12interpolatorD1Ev
libqucs.so:_ZN4qucs12interpolatorD2Ev
libqucs.so:_ZN4qucs13netlist_checkE
libqucs.so:_ZN4qucs14exceptionstack3popEv
libqucs.so:_ZN4qucs14exceptionstack3topEv
libqucs.so:_ZN4qucs14exceptionstack4pushEPNS_9exceptionE
libqucs.so:_ZN4qucs14exceptionstack5printEPKc
libqucs.so:_ZN4qucs14exceptionstackC1ERKS0_
libqucs.so:_ZN4qucs14exceptionstackC1Ev
libqucs.so:_ZN4qucs14exceptionstackC2ERKS0_
libqucs.so:_ZN4qucs14exceptionstackC2Ev
libqucs.so:_ZN4qucs14exceptionstackD1Ev
libqucs.so:_ZN4qucs14exceptionstackD2Ev
libqucs.so:_ZN4qucs14inverseLaplaceENS_6matrixE
libqucs.so:_ZN4qucs15strlistiterator4lastEv
libqucs.so:_ZN4qucs15strlistiterator5countEv
libqucs.so:_ZN4qucs15strlistiterator5firstEv
libqucs.so:_ZN4qucs15strlistiterator6toLastEv
libqucs.so:_ZN4qucs15strlistiterator7currentEv
libqucs.so:_ZN4qucs15strlistiterator7toFirstEv
libqucs.so:_ZN4qucs15strlistiteratorC1EPNS_7strlistE
libqucs.so:_ZN4qucs15strlistiteratorC1ERNS_7strlistE
libqucs.so:_ZN4qucs15strlistiteratorC1Ev
libqucs.so:_ZN4qucs15strlistiteratorC2EPNS_7strlistE
libqucs.so:_ZN4qucs15strlistiteratorC2ERNS_7strlistE
libqucs.so:_ZN4qucs15strlistiteratorC2Ev
libqucs.so:_ZN4qucs15strlistiteratorD1Ev
libqucs.so:_ZN4qucs15strlistiteratorD2Ev
libqucs.so:_ZN4qucs15strlistiteratorppEv
libqucs.so:_ZN4qucs18inverseGaussJordanENS_6matrixE
libqucs.so:_ZN4qucs18trsolver_interface10getIProbeIEPcRd
libqucs.so:_ZN4qucs18trsolver_interface10getJacColsEv
libqucs.so:_ZN4qucs18trsolver_interface10getJacDataEiiRd
libqucs.so:_ZN4qucs18trsolver_interface10getJacRowsEv
libqucs.so:_ZN4qucs18trsolver_interface10getVProbeVEPcRd
libqucs.so:_ZN4qucs18trsolver_interface11getsolutionEPd
libqucs.so:_ZN4qucs18trsolver_interface13printSolutionEv
libqucs.so:_ZN4qucs18trsolver_interface13setMessageFcnEPFviPKczE
libqucs.so:_ZN4qucs18trsolver_interface14setECVSVoltageEPcd
libqucs.so:_ZN4qucs18trsolver_interface14stepsolve_syncEd
libqucs.so:_ZN4qucs18trsolver_interface15acceptstep_syncEv
libqucs.so:_ZN4qucs18trsolver_interface15stepsolve_asyncEd
libqucs.so:_ZN4qucs18trsolver_interface16acceptstep_asyncEv
libqucs.so:_ZN4qucs18trsolver_interface16rejectstep_asyncEv
libqucs.so:_ZN4qucs18trsolver_interface4getMEv
libqucs.so:_ZN4qucs18trsolver_interface4getNEv
libqucs.so:_ZN4qucs18trsolver_interface4initEddi
libqucs.so:_ZN4qucs18trsolver_interface6getETREv
libqucs.so:_ZN4qucs18trsolver_interface8getNodeVEPcRd
libqucs.so:_ZN4qucs18trsolver_interfaceC1EPc
libqucs.so:_ZN4qucs18trsolver_interfaceC1Ev
libqucs.so:_ZN4qucs18trsolver_interfaceC2EPc
libqucs.so:_ZN4qucs18trsolver_interfaceC2Ev
libqucs.so:_ZN4qucs2b1ENS_6matrixE
libqucs.so:_ZN4qucs2b1ENS_6matvecE
libqucs.so:_ZN4qucs2dBENS_6matrixE
libqucs.so:_ZN4qucs2dBENS_6matvecE
libqucs.so:_ZN4qucs2dBENS_6vectorE
libqucs.so:_ZN4qucs2dBESt7complexIdE
libqucs.so:_ZN4qucs2i0ENS_6vectorE
libqucs.so:_ZN4qucs2i0ESt7complexIdE
libqucs.so:_ZN4qucs2jnEiNS_6vectorE
libqucs.so:_ZN4qucs2jnEiSt7complexIdE
libqucs.so:_ZN4qucs2ynEiNS_6vectorE
libqucs.so:_ZN4qucs2ynEiSt7complexIdE
libqucs.so:_ZN4qucs3absENS_6matrixE
libqucs.so:_ZN4qucs3absENS_6matvecE
libqucs.so:_ZN4qucs3absENS_6vectorE
libqucs.so:_ZN4qucs3absEd
libqucs.so:_ZN4qucs3argENS_6matrixE
libqucs.so:_ZN4qucs3argENS_6matvecE
libqucs.so:_ZN4qucs3argENS_6vectorE
libqucs.so:_ZN4qucs3avgENS_6vectorE
libqucs.so:_ZN4qucs3cosENS_6vectorE
libqucs.so:_ZN4qucs3cosESt7complexIdE
libqucs.so:_ZN4qucs3cosEd
libqucs.so:_ZN4qucs3cotENS_6vectorE
libqucs.so:_ZN4qucs3cotESt7complexIdE
libqucs.so:_ZN4qucs3dbmENS_6vectorESt7complexIdE
libqucs.so:_ZN4qucs3detENS_6matrixE
libqucs.so:_ZN4qucs3detENS_6matvecE
libqucs.so:_ZN4qucs3emi10f_2ndorderEddd
libqucs.so:_ZN4qucs3emi12nearestbin32Ei
libqucs.so:_ZN4qucs3emi7f_gaussEddd
libqucs.so:_ZN4qucs3emi7f_idealEddd
libqucs.so:_ZN4qucs3emi8receiverEPNS_6vectorES2_i
libqucs.so:_ZN4qucs3emi8receiverEPddi
libqucs.so:_ZN4qucs3eqn10assignment13differentiateEPc
libqucs.so:_ZN4qucs3eqn10assignment15addDependenciesEPNS_7strlistE
libqucs.so:_ZN4qucs3eqn10assignment3addEPS1_
libqucs.so:_ZN4qucs3eqn10assignment3mulEPS1_
libqucs.so:_ZN4qucs3eqn10assignment5printEv
libqucs.so:_ZN4qucs3eqn10assignment6mulrefEPS1_
libqucs.so:_ZN4qucs3eqn10assignment6renameEPc
libqucs.so:_ZN4qucs3eqn10assignment7replaceEPcS2_
libqucs.so:_ZN4qucs3eqn10assignment8evalTypeEv
libqucs.so:_ZN4qucs3eqn10assignment8evaluateEv
libqucs.so:_ZN4qucs3eqn10assignment8recreateEv
libqucs.so:_ZN4qucs3eqn10assignment8toStringEv
libqucs.so:_ZN4qucs3eqn10assignmentC1ERKS1_
libqucs.so:_ZN4qucs3eqn10assignmentC1Ev
libqucs.so:_ZN4qucs3eqn10assignmentC2ERKS1_
libqucs.so:_ZN4qucs3eqn10assignmentC2Ev
libqucs.so:_ZN4qucs3eqn10assignmentD0Ev
libqucs.so:_ZN4qucs3eqn10assignmentD1Ev
libqucs.so:_ZN4qucs3eqn10assignmentD2Ev
libqucs.so:_ZN4qucs3eqn11application12evalTypeArgsEv
libqucs.so:_ZN4qucs3eqn11application12evalTypeFastEv
libqucs.so:_ZN4qucs3eqn11application13differentiateEPc
libqucs.so:_ZN4qucs3eqn11application15addDependenciesEPNS_7strlistE
libqucs.so:_ZN4qucs3eqn11application18findDifferentiatorEv
libqucs.so:_ZN4qucs3eqn11application5printEv
libqucs.so:_ZN4qucs3eqn11application7replaceEPcS2_
libqucs.so:_ZN4qucs3eqn11application8evalTypeEv
libqucs.so:_ZN4qucs3eqn11application8evaluateEv
libqucs.so:_ZN4qucs3eqn11application8recreateEv
libqucs.so:_ZN4qucs3eqn11application8toStringEv
libqucs.so:_ZN4qucs3eqn11application9createKeyEv
libqucs.so:_ZN4qucs3eqn11applicationC1EPKci
libqucs.so:_ZN4qucs3eqn11applicationC1ERKS1_
libqucs.so:_ZN4qucs3eqn11applicationC1Ev
libqucs.so:_ZN4qucs3eqn11applicationC2EPKci
libqucs.so:_ZN4qucs3eqn11applicationC2ERKS1_
libqucs.so:_ZN4qucs3eqn11applicationC2Ev
libqucs.so:_ZN4qucs3eqn11applicationD0Ev
libqucs.so:_ZN4qucs3eqn11applicationD1Ev
libqucs.so:_ZN4qucs3eqn11applicationD2Ev
libqucs.so:_ZN4qucs3eqn12applicationsE
libqucs.so:_ZN4qucs3eqn13differentiate10app_reduceEPKcPNS0_4nodeES5_
libqucs.so:_ZN4qucs3eqn13differentiate10ifthenelseEPNS0_11applicationEPc
libqucs.so:_ZN4qucs3eqn13differentiate10plus_unaryEPNS0_11applicationEPc
libqucs.so:_ZN4qucs3eqn13differentiate10sqr_reduceEPNS0_4nodeE
libqucs.so:_ZN4qucs3eqn13differentiate11minus_unaryEPNS0_11applicationEPc
libqucs.so:_ZN4qucs3eqn13differentiate11over_reduceEPNS0_4nodeES3_
libqucs.so:_ZN4qucs3eqn13differentiate11plus_binaryEPNS0_11applicationEPc
libqucs.so:_ZN4qucs3eqn13differentiate11plus_reduceEPNS0_4nodeES3_
libqucs.so:_ZN4qucs3eqn13differentiate11sqrt_reduceEPNS0_4nodeE
libqucs.so:_ZN4qucs3eqn13differentiate12hypot_reduceEPNS0_4nodeES3_
libqucs.so:_ZN4qucs3eqn13differentiate12minus_binaryEPNS0_11applicationEPc
libqucs.so:_ZN4qucs3eqn13differentiate12minus_reduceEPNS0_4nodeE
libqucs.so:_ZN4qucs3eqn13differentiate12minus_reduceEPNS0_4nodeES3_
libqucs.so:_ZN4qucs3eqn13differentiate12power_reduceEPNS0_4nodeES3_
libqucs.so:_ZN4qucs3eqn13differentiate12times_reduceEPNS0_4nodeES3_
libqucs.so:_ZN4qucs3eqn13differentiate15over_reduce_advERPNS0_4nodeES4_
libqucs.so:_ZN4qucs3eqn13differentiate2lnEPNS0_11applicationEPc
libqucs.so:_ZN4qucs3eqn13differentiate2vtEPNS0_11applicationEPc
libqucs.so:_ZN4qucs3eqn13differentiate3absEPNS0_11applicationEPc
libqucs.so:_ZN4qucs3eqn13differentiate3cosEPNS0_11applicationEPc
libqucs.so:_ZN4qucs3eqn13differentiate3cotEPNS0_11applicationEPc
libqucs.so:_ZN4qucs3eqn13differentiate3expEPNS0_11applicationEPc
libqucs.so:_ZN4qucs3eqn13differentiate3secEPNS0_11applicationEPc
libqucs.so:_ZN4qucs3eqn13differentiate3sinEPNS0_11applicationEPc
libqucs.so:_ZN4qucs3eqn13differentiate3tanEPNS0_11applicationEPc
libqucs.so:_ZN4qucs3eqn13differentiate4coshEPNS0_11applicationEPc
libqucs.so:_ZN4qucs3eqn13differentiate4cothEPNS0_11applicationEPc
libqucs.so:_ZN4qucs3eqn13differentiate4log2EPNS0_11applicationEPc
libqucs.so:_ZN4qucs3eqn13differentiate4normEPNS0_11applicationEPc
libqucs.so:_ZN4qucs3eqn13differentiate4overEPNS0_11applicationEPc
libqucs.so:_ZN4qucs3eqn13differentiate4signEPNS0_11applicationEPc
libqucs.so:_ZN4qucs3eqn13differentiate4sincEPNS0_11applicationEPc
libqucs.so:_ZN4qucs3eqn13differentiate4sinhEPNS0_11applicationEPc
libqucs.so:_ZN4qucs3eqn13differentiate4sqrtEPNS0_11applicationEPc
libqucs.so:_ZN4qucs3eqn13differentiate4stepEPNS0_11applicationEPc
libqucs.so:_ZN4qucs3eqn13differentiate4tanhEPNS0_11applicationEPc
libqucs.so:_ZN4qucs3eqn13differentiate5cosecEPNS0_11applicationEPc
libqucs.so:_ZN4qucs3eqn13differentiate5log10EPNS0_11applicationEPc
libqucs.so:_ZN4qucs3eqn13differentiate5powerEPNS0_11applicationEPc
libqucs.so:_ZN4qucs3eqn13differentiate5timesEPNS0_11applicationEPc
libqucs.so:_ZN4qucs3eqn13differentiate6arccosEPNS0_11applicationEPc
libqucs.so:_ZN4qucs3eqn13differentiate6arccotEPNS0_11applicationEPc
libqucs.so:_ZN4qucs3eqn13differentiate6arcoshEPNS0_11applicationEPc
libqucs.so:_ZN4qucs3eqn13differentiate6arcothEPNS0_11applicationEPc
libqucs.so:_ZN4qucs3eqn13differentiate6arcsecEPNS0_11applicationEPc
libqucs.so:_ZN4qucs3eqn13differentiate6arcsinEPNS0_11applicationEPc
libqucs.so:_ZN4qucs3eqn13differentiate6arctanEPNS0_11applicationEPc
libqucs.so:_ZN4qucs3eqn13differentiate6arsechEPNS0_11applicationEPc
libqucs.so:_ZN4qucs3eqn13differentiate6arsinhEPNS0_11applicationEPc
libqucs.so:_ZN4qucs3eqn13differentiate6artanhEPNS0_11applicationEPc
libqucs.so:_ZN4qucs3eqn13differentiate6limexpEPNS0_11applicationEPc
libqucs.so:_ZN4qucs3eqn13differentiate6squareEPNS0_11applicationEPc
libqucs.so:_ZN4qucs3eqn13differentiate6xhypotEPNS0_11applicationEPc
libqucs.so:_ZN4qucs3eqn13differentiate8arccosecEPNS0_11applicationEPc
libqucs.so:_ZN4qucs3eqn13differentiate8arcosechEPNS0_11applicationEPc
libqucs.so:_ZN4qucs3eqn13differentiate9ln_reduceEPNS0_4nodeE
libqucs.so:_ZN4qucs3eqn16differentiationsE
libqucs.so:_ZN4qucs3eqn4node11appendNodesEPS1_
libqucs.so:_ZN4qucs3eqn4node11getInstanceEv
libqucs.so:_ZN4qucs3eqn4node11setInstanceEPKc
libqucs.so:_ZN4qucs3eqn4node13applyInstanceEv
libqucs.so:_ZN4qucs3eqn4node15getDependenciesEv
libqucs.so:_ZN4qucs3eqn4node15getResultDoubleEv
libqucs.so:_ZN4qucs3eqn4node15getResultVectorEv
libqucs.so:_ZN4qucs3eqn4node15setDependenciesEPNS_7strlistE
libqucs.so:_ZN4qucs3eqn4node16getResultComplexEv
libqucs.so:_ZN4qucs3eqn4node19addDropDependenciesEPc
libqucs.so:_ZN4qucs3eqn4node19addPrepDependenciesEPc
libqucs.so:_ZN4qucs3eqn4node19collectDependenciesEv
libqucs.so:_ZN4qucs3eqn4node19recurseDependenciesEPNS0_7checkerEPNS_7strlistE
libqucs.so:_ZN4qucs3eqn4node19setDataDependenciesEPNS_7strlistE
libqucs.so:_ZN4qucs3eqn4node22appendPrepDependenciesEPNS_7strlistE
libqucs.so:_ZN4qucs3eqn4node23collectDataDependenciesEv
libqucs.so:_ZN4qucs3eqn4node3getEi
libqucs.so:_ZN4qucs3eqn4node5countEv
libqucs.so:_ZN4qucs3eqn4node6appendEPS1_
libqucs.so:_ZN4qucs3eqn4node9calculateEv
libqucs.so:_ZN4qucs3eqn4node9getResultEi
libqucs.so:_ZN4qucs3eqn4node9setResultEPNS0_8constantE
libqucs.so:_ZN4qucs3eqn4nodeC1ERKS1_
libqucs.so:_ZN4qucs3eqn4nodeC1Ei
libqucs.so:_ZN4qucs3eqn4nodeC1Ev
libqucs.so:_ZN4qucs3eqn4nodeC2ERKS1_
libqucs.so:_ZN4qucs3eqn4nodeC2Ei
libqucs.so:_ZN4qucs3eqn4nodeC2Ev
libqucs.so:_ZN4qucs3eqn4nodeD0Ev
libqucs.so:_ZN4qucs3eqn4nodeD1Ev
libqucs.so:_ZN4qucs3eqn4nodeD2Ev
libqucs.so:_ZN4qucs3eqn6solver10dataVectorEPNS0_4nodeE
libqucs.so:_ZN4qucs3eqn6solver11getDataSizeEPc
libqucs.so:_ZN4qucs3eqn6solver13getDataVectorEPc
libqucs.so:_ZN4qucs3eqn6solver14checkinDatasetEv
libqucs.so:_ZN4qucs3eqn6solver15addEquationDataEPNS_6matvecE
libqucs.so:_ZN4qucs3eqn6solver15addEquationDataEPNS_6vectorEb
libqucs.so:_ZN4qucs3eqn6solver15checkoutDatasetEv
libqucs.so:_ZN4qucs3eqn6solver17findMatrixVectorsEPNS_6vectorE
libqucs.so:_ZN4qucs3eqn6solver17getDependencySizeEPNS_7strlistEi
libqucs.so:_ZN4qucs3eqn6solver18findEquationResultEPNS0_4nodeE
libqucs.so:_ZN4qucs3eqn6solver20addGeneratedEquationEPNS_6vectorEPKc
libqucs.so:_ZN4qucs3eqn6solver23collectDataDependenciesEPNS0_4nodeE
libqucs.so:_ZN4qucs3eqn6solver5solveEPNS_7datasetE
libqucs.so:_ZN4qucs3eqn6solver8dataSizeEPNS0_8constantE
libqucs.so:_ZN4qucs3eqn6solver8dataSizeEPNS_7strlistE
libqucs.so:_ZN4qucs3eqn6solver8evaluateEv
libqucs.so:_ZN4qucs3eqn6solverC1EPNS0_7checkerE
libqucs.so:_ZN4qucs3eqn6solverC2EPNS0_7checkerE
libqucs.so:_ZN4qucs3eqn6solverD1Ev
libqucs.so:_ZN4qucs3eqn6solverD2Ev
libqucs.so:_ZN4qucs3eqn7checker10addComplexEPKcS3_St7complexIdE
libqucs.so:_ZN4qucs3eqn7checker10applyTypesEv
libqucs.so:_ZN4qucs3eqn7checker11addEquationEPNS0_4nodeE
libqucs.so:_ZN4qucs3eqn7checker11checkExportEv
libqucs.so:_ZN4qucs3eqn7checker11isGeneratedEPc
libqucs.so:_ZN4qucs3eqn7checker12addReferenceEPKcS3_Pc
libqucs.so:_ZN4qucs3eqn7checker12createDoubleEPKcS3_d
libqucs.so:_ZN4qucs3eqn7checker12detectCyclesEv
libqucs.so:_ZN4qucs3eqn7checker12dropEquationEPNS0_4nodeE
libqucs.so:_ZN4qucs3eqn7checker12findEquationEPNS0_4nodeEPKc
libqucs.so:_ZN4qucs3eqn7checker12findPropertyEPc
libqucs.so:_ZN4qucs3eqn7checker12getVariablesEv
libqucs.so:_ZN4qucs3eqn7checker12lastEquationEPNS0_4nodeE
libqucs.so:_ZN4qucs3eqn7checker12setEquationsEPNS0_4nodeE
libqucs.so:_ZN4qucs3eqn7checker13createComplexEPKcS3_St7complexIdE
libqucs.so:_ZN4qucs3eqn7checker13findDuplicateEv
libqucs.so:_ZN4qucs3eqn7checker13findUndefinedEi
libqucs.so:_ZN4qucs3eqn7checker14appendEquationEPNS0_4nodeE
libqucs.so:_ZN4qucs3eqn7checker14appendEquationEPNS0_4nodeES3_
libqucs.so:_ZN4qucs3eqn7checker15createReferenceEPKcS3_Pc
libqucs.so:_ZN4qucs3eqn7checker16foldDependenciesEPNS_7strlistE
libqucs.so:_ZN4qucs3eqn7checker16reorderEquationsEv
libqucs.so:_ZN4qucs3eqn7checker19collectDependenciesEPNS0_4nodeE
libqucs.so:_ZN4qucs3eqn7checker19collectDependenciesEv
libqucs.so:_ZN4qucs3eqn7checker4listEv
libqucs.so:_ZN4qucs3eqn7checker5checkEi
libqucs.so:_ZN4qucs3eqn7checker7tag2keyEi
libqucs.so:_ZN4qucs3eqn7checker9addDoubleEPKcS3_d
libqucs.so:_ZN4qucs3eqn7checker9constantsEv
libqucs.so:_ZN4qucs3eqn7checker9setDoubleEPKcd
libqucs.so:_ZN4qucs3eqn7checker9variablesEv
libqucs.so:_ZN4qucs3eqn7checkerC1Ev
libqucs.so:_ZN4qucs3eqn7checkerC2Ev
libqucs.so:_ZN4qucs3eqn7checkerD1Ev
libqucs.so:_ZN4qucs3eqn7checkerD2Ev
libqucs.so:_ZN4qucs3eqn8constant13differentiateEPc
libqucs.so:_ZN4qucs3eqn8constant5printEv
libqucs.so:_ZN4qucs3eqn8constant8evalTypeEv
libqucs.so:_ZN4qucs3eqn8constant8evaluateEv
libqucs.so:_ZN4qucs3eqn8constant8recreateEv
libqucs.so:_ZN4qucs3eqn8constant8toStringEv
libqucs.so:_ZN4qucs3eqn8constantC1ERKS1_
libqucs.so:_ZN4qucs3eqn8constantC1Ei
libqucs.so:_ZN4qucs3eqn8constantC1Ev
libqucs.so:_ZN4qucs3eqn8constantC2ERKS1_
libqucs.so:_ZN4qucs3eqn8constantC2Ei
libqucs.so:_ZN4qucs3eqn8constantC2Ev
libqucs.so:_ZN4qucs3eqn8constantD0Ev
libqucs.so:_ZN4qucs3eqn8constantD1Ev
libqucs.so:_ZN4qucs3eqn8constantD2Ev
libqucs.so:_ZN4qucs3eqn8evaluate10adjoint_mvEPNS0_8constantE
libqucs.so:_ZN4qucs3eqn8evaluate10arccosec_cEPNS0_8constantE
libqucs.so:_ZN4qucs3eqn8evaluate10arccosec_dEPNS0_8constantE
libqucs.so:_ZN4qucs3eqn8evaluate10arccosec_vEPNS0_8constantE
libqucs.so:_ZN4qucs3eqn8evaluate10arcosech_cEPNS0_8constantE
libqucs.so:_ZN4qucs3eqn8evaluate10arcosech_dEPNS0_8constantE
libqucs.so:_ZN4qucs3eqn8evaluate10arcosech_vEPNS0_8constantE
libqucs.so:_ZN4qucs3eqn8evaluate10fftshift_vEPNS0_8constantE
libqucs.so:_ZN4qucs3eqn8evaluate10index_mv_1EPNS0_8constantE
libqucs.so:_ZN4qucs3eqn8evaluate10index_mv_2EPNS0_8constantE
libqucs.so:_ZN4qucs3eqn8evaluate10inverse_mvEPNS0_8constantE
libqucs.so:_ZN4qucs3eqn8evaluate10minus_c_mvEPNS0_8constantE
libqucs.so:_ZN4qucs3eqn8evaluate10minus_d_mvEPNS0_8constantE
libqucs.so:_ZN4qucs3eqn8evaluate10minus_m_mvEPNS0_8constantE
libqucs.so:_ZN4qucs3eqn8evaluate10minus_mv_cEPNS0_8constantE
libqucs.so:_ZN4qucs3eqn8evaluate10minus_mv_dEPNS0_8constantE
libqucs.so:_ZN4qucs3eqn8evaluate10minus_mv_mEPNS0_8constantE
libqucs.so:_ZN4qucs3eqn8evaluate10minus_mv_vEPNS0_8constantE
libqucs.so:_ZN4qucs3eqn8evaluate10minus_v_mvEPNS0_8constantE
libqucs.so:_ZN4qucs3eqn8evaluate10modulo_c_cEPNS0_8constantE
libqucs.so:_ZN4qucs3eqn8evaluate10modulo_c_dEPNS0_8constantE
libqucs.so:_ZN4qucs3eqn8evaluate10modulo_c_vEPNS0_8constantE
libqucs.so:_ZN4qucs3eqn8evaluate10modulo_d_cEPNS0_8constantE
libqucs.so:_ZN4qucs3eqn8evaluate10modulo_d_dEPNS0_8constantE
libqucs.so:_ZN4qucs3eqn8evaluate10modulo_d_vEPNS0_8constantE
libqucs.so:_ZN4qucs3eqn8evaluate10modulo_v_cEPNS0_8constantE
libqucs.so:_ZN4qucs3eqn8evaluate10modulo_v_dEPNS0_8constantE
libqucs.so:_ZN4qucs3eqn8evaluate10modulo_v_vEPNS0_8constantE
libqucs.so:_ZN4qucs3eqn8evaluate10plot_vs_mvEPNS0_8constantE
libqucs.so:_ZN4qucs3eqn8evaluate10plus_mv_mvEPNS0_8constantE
libqucs.so:_ZN4qucs3eqn8evaluate10power_mv_cEPNS0_8constantE
libqucs.so:_ZN4qucs3eqn8evaluate10power_mv_dEPNS0_8constantE
libqucs.so:_ZN4qucs3eqn8evaluate10power_mv_vEPNS0_8constantE
libqucs.so:_ZN4qucs3eqn8evaluate10runavg_c_dEPNS0_8constantE
libqucs.so:_ZN4qucs3eqn8evaluate10runavg_d_dEPNS0_8constantE
libqucs.so:_ZN4qucs3eqn8evaluate10runavg_v_dEPNS0_8constantE
libqucs.so:_ZN4qucs3eqn8evaluate10stos_m_c_cEPNS0_8constantE
libqucs.so:_ZN4qucs3eqn8evaluate10stos_m_c_dEPNS0_8constantE
libqucs.so:_ZN4qucs3eqn8evaluate10stos_m_c_vEPNS0_8constantE
libqucs.so:_ZN4qucs3eqn8evaluate10stos_m_d_cEPNS0_8constantE
libqucs.so:_ZN4qucs3eqn8evaluate10stos_m_d_dEPNS0_8constantE
libqucs.so:_ZN4qucs3eqn8evaluate10stos_m_d_vEPNS0_8constantE
libqucs.so:_ZN4qucs3eqn8evaluate10stos_m_v_cEPNS0_8constantE
libqucs.so:_ZN4qucs3eqn8evaluate10stos_m_v_dEPNS0_8constantE
libqucs.so:_ZN4qucs3eqn8evaluate10stos_m_v_vEPNS0_8constantE
libqucs.so:_ZN4qucs3eqn8evaluate10times_c_mvEPNS0_8constantE
libqucs.so:_ZN4qucs3eqn8evaluate10times_d_mvEPNS0_8constantE
libqucs.so:_ZN4qucs3eqn8evaluate10times_m_mvEPNS0_8constantE
libqucs.so:_ZN4qucs3eqn8evaluate10times_mv_cEPNS0_8constantE
libqucs.so:_ZN4qucs3eqn8evaluate10times_mv_dEPNS0_8constantE
libqucs.so:_ZN4qucs3eqn8evaluate10times_mv_mEPNS0_8constantE
libqucs.so:_ZN4qucs3eqn8evaluate10times_mv_vEPNS0_8constantE
libqucs.so:_ZN4qucs3eqn8evaluate10times_v_mvEPNS0_8constantE
libqucs.so:_ZN4qucs3eqn8evaluate10twoport_mvEPNS0_8constantE
libqucs.so:_ZN4qucs3eqn8evaluate10unwrap_v_1EPNS0_8constantE
libqucs.so:_ZN4qucs3eqn8evaluate10unwrap_v_2EPNS0_8constantE
libqucs.so:_ZN4qucs3eqn8evaluate10unwrap_v_3EPNS0_8constantE
libqucs.so:_ZN4qucs3eqn8evaluate10variance_cEPNS0_8constantE
libqucs.so:_ZN4qucs3eqn8evaluate10variance_dEPNS0_8constantE
libqucs.so:_ZN4qucs3eqn8evaluate10variance_vEPNS0_8constantE
libqucs.so:_ZN4qucs3eqn8evaluate10xhypot_c_cEPNS0_8constantE
libqucs.so:_ZN4qucs3eqn8evaluate10xhypot_c_dEPNS0_8constantE
libqucs.so:_ZN4qucs3eqn8evaluate10xhypot_c_vEPNS0_8constantE
libqucs.so:_ZN4qucs3eqn8evaluate10xhypot_d_cEPNS0_8constantE
libqucs.so:_ZN4qucs3eqn8evaluate10xhypot_d_dEPNS0_8constantE
libqucs.so:_ZN4qucs3eqn8evaluate10xhypot_d_vEPNS0_8constantE
libqucs.so:_ZN4qucs3eqn8evaluate10xhypot_v_cEPNS0_8constantE
libqucs.so:_ZN4qucs3eqn8evaluate10xhypot_v_dEPNS0_8constantE
libqucs.so:_ZN4qucs3eqn8evaluate10xhypot_v_vEPNS0_8constantE
libqucs.so:_ZN4qucs3eqn8evaluate11arctan2_d_dEPNS0_8constantE
libqucs.so:_ZN4qucs3eqn8evaluate11arctan2_d_vEPNS0_8constantE
libqucs.so:_ZN4qucs3eqn8evaluate11arctan2_v_dEPNS0_8constantE
libqucs.so:_ZN4qucs3eqn8evaluate11arctan2_v_vEPNS0_8constantE
libqucs.so:_ZN4qucs3eqn8evaluate11ga_circle_dEPNS0_8constantE
libqucs.so:_ZN4qucs3eqn8evaluate11ga_circle_vEPNS0_8constantE
libqucs.so:_ZN4qucs3eqn8evaluate11gp_circle_dEPNS0_8constantE
libqucs.so:_ZN4qucs3eqn8evaluate11gp_circle_vEPNS0_8constantE
libqucs.so:_ZN4qucs3eqn8evaluate11greater_c_cEPNS0_8constantE
libqucs.so:_ZN4qucs3eqn8evaluate11greater_c_dEPNS0_8constantE
libqucs.so:_ZN4qucs3eqn8evaluate11greater_c_vEPNS0_8constantE
libqucs.so:_ZN4qucs3eqn8evaluate11greater_d_cEPNS0_8constantE
libqucs.so:_ZN4qucs3eqn8evaluate11greater_d_dEPNS0_8constantE
libqucs.so:_ZN4qucs3eqn8evaluate11greater_d_vEPNS0_8constantE
libqucs.so:_ZN4qucs3eqn8evaluate11greater_v_cEPNS0_8constantE
libqucs.so:_ZN4qucs3eqn8evaluate11greater_v_dEPNS0_8constantE
libqucs.so:_ZN4qucs3eqn8evaluate11greater_v_vEPNS0_8constantE
libqucs.so:_ZN4qucs3eqn8evaluate11minus_mv_mvEPNS0_8constantE
libqucs.so:_ZN4qucs3eqn8evaluate11stos_mv_c_cEPNS0_8constantE
libqucs.so:_ZN4qucs3eqn8evaluate11stos_mv_c_dEPNS0_8constantE
libqucs.so:_ZN4qucs3eqn8evaluate11stos_mv_c_vEPNS0_8constantE
libqucs.so:_ZN4qucs3eqn8evaluate11stos_mv_d_cEPNS0_8constantE
libqucs.so:_ZN4qucs3eqn8evaluate11stos_mv_d_dEPNS0_8constantE
libqucs.so:_ZN4qucs3eqn8evaluate11stos_mv_d_vEPNS0_8constantE
libqucs.so:_ZN4qucs3eqn8evaluate11stos_mv_v_cEPNS0_8constantE
libqucs.so:_ZN4qucs3eqn8evaluate11stos_mv_v_dEPNS0_8constantE
libqucs.so:_ZN4qucs3eqn8evaluate11stos_mv_v_vEPNS0_8constantE
libqucs.so:_ZN4qucs3eqn8evaluate11times_mv_mvEPNS0_8constantE
libqucs.so:_ZN4qucs3eqn8evaluate11transpose_mEPNS0_8constantE
libqucs.so:_ZN4qucs3eqn8evaluate12notequal_b_bEPNS0_8constantE
libqucs.so:_ZN4qucs3eqn8evaluate12notequal_c_cEPNS0_8constantE
libqucs.so:_ZN4qucs3eqn8evaluate12notequal_c_dEPNS0_8constantE
libqucs.so:_ZN4qucs3eqn8evaluate12notequal_c_vEPNS0_8constantE
libqucs.so:_ZN4qucs3eqn8evaluate12notequal_d_cEPNS0_8constantE
libqucs.so:_ZN4qucs3eqn8evaluate12notequal_d_dEPNS0_8constantE
libqucs.so:_ZN4qucs3eqn8evaluate12notequal_d_vEPNS0_8constantE
libqucs.so:_ZN4qucs3eqn8evaluate12notequal_v_cEPNS0_8constantE
libqucs.so:_ZN4qucs3eqn8evaluate12notequal_v_dEPNS0_8constantE
libqucs.so:_ZN4qucs3eqn8evaluate12notequal_v_vEPNS0_8constantE
libqucs.so:_ZN4qucs3eqn8evaluate12receiver_v_vEPNS0_8constantE
libqucs.so:_ZN4qucs3eqn8evaluate12transpose_mvEPNS0_8constantE
libqucs.so:_ZN4qucs3eqn8evaluate13freq2time_v_vEPNS0_8constantE
libqucs.so:_ZN4qucs3eqn8evaluate13ga_circle_d_dEPNS0_8constantE
libqucs.so:_ZN4qucs3eqn8evaluate13ga_circle_d_vEPNS0_8constantE
libqucs.so:_ZN4qucs3eqn8evaluate13ga_circle_v_dEPNS0_8constantE
libqucs.so:_ZN4qucs3eqn8evaluate13ga_circle_v_vEPNS0_8constantE
libqucs.so:_ZN4qucs3eqn8evaluate13gp_circle_d_dEPNS0_8constantE
libqucs.so:_ZN4qucs3eqn8evaluate13gp_circle_d_vEPNS0_8constantE
libqucs.so:_ZN4qucs3eqn8evaluate13gp_circle_v_dEPNS0_8constantE
libqucs.so:_ZN4qucs3eqn8evaluate13gp_circle_v_vEPNS0_8constantE
libqucs.so:_ZN4qucs3eqn8evaluate13integrate_c_cEPNS0_8constantE
libqucs.so:_ZN4qucs3eqn8evaluate13integrate_d_dEPNS0_8constantE
libqucs.so:_ZN4qucs3eqn8evaluate13integrate_v_cEPNS0_8constantE
libqucs.so:_ZN4qucs3eqn8evaluate13integrate_v_dEPNS0_8constantE
libqucs.so:_ZN4qucs3eqn8evaluate13stab_circle_lEPNS0_8constantE
libqucs.so:_ZN4qucs3eqn8evaluate13stab_circle_sEPNS0_8constantE
libqucs.so:_ZN4qucs3eqn8evaluate13time2freq_v_vEPNS0_8constantE
libqucs.so:_ZN4qucs3eqn8evaluate14extract_vectorEPNS0_8constantEiRiS4_S3_
libqucs.so:_ZN4qucs3eqn8evaluate14ifthenelse_b_bEPNS0_8constantE
libqucs.so:_ZN4qucs3eqn8evaluate14ifthenelse_b_dEPNS0_8constantE
libqucs.so:_ZN4qucs3eqn8evaluate14ifthenelse_c_cEPNS0_8constantE
libqucs.so:_ZN4qucs3eqn8evaluate14ifthenelse_d_bEPNS0_8constantE
libqucs.so:_ZN4qucs3eqn8evaluate14ifthenelse_d_dEPNS0_8constantE
libqucs.so:_ZN4qucs3eqn8evaluate14ifthenelse_m_mEPNS0_8constantE
libqucs.so:_ZN4qucs3eqn8evaluate14ifthenelse_v_vEPNS0_8constantE
libqucs.so:_ZN4qucs3eqn8evaluate14noise_circle_dEPNS0_8constantE
libqucs.so:_ZN4qucs3eqn8evaluate14noise_circle_vEPNS0_8constantE
libqucs.so:_ZN4qucs3eqn8evaluate15interpolate_v_vEPNS0_8constantE
libqucs.so:_ZN4qucs3eqn8evaluate15lessorequal_c_cEPNS0_8constantE
libqucs.so:_ZN4qucs3eqn8evaluate15lessorequal_c_dEPNS0_8constantE
libqucs.so:_ZN4qucs3eqn8evaluate15lessorequal_c_vEPNS0_8constantE
libqucs.so:_ZN4qucs3eqn8evaluate15lessorequal_d_cEPNS0_8constantE
libqucs.so:_ZN4qucs3eqn8evaluate15lessorequal_d_dEPNS0_8constantE
libqucs.so:_ZN4qucs3eqn8evaluate15lessorequal_d_vEPNS0_8constantE
libqucs.so:_ZN4qucs3eqn8evaluate15lessorequal_v_cEPNS0_8constantE
libqucs.so:_ZN4qucs3eqn8evaluate15lessorequal_v_dEPNS0_8constantE
libqucs.so:_ZN4qucs3eqn8evaluate15lessorequal_v_vEPNS0_8constantE
libqucs.so:_ZN4qucs3eqn8evaluate15stab_circle_l_dEPNS0_8constantE
libqucs.so:_ZN4qucs3eqn8evaluate15stab_circle_l_vEPNS0_8constantE
libqucs.so:_ZN4qucs3eqn8evaluate15stab_circle_s_dEPNS0_8constantE
libqucs.so:_ZN4qucs3eqn8evaluate15stab_circle_s_vEPNS0_8constantE
libqucs.so:_ZN4qucs3eqn8evaluate16ifthenelse_v_v_vEPNS0_8constantE
libqucs.so:_ZN4qucs3eqn8evaluate16noise_circle_d_dEPNS0_8constantE
libqucs.so:_ZN4qucs3eqn8evaluate16noise_circle_d_vEPNS0_8constantE
libqucs.so:_ZN4qucs3eqn8evaluate16noise_circle_v_dEPNS0_8constantE
libqucs.so:_ZN4qucs3eqn8evaluate16noise_circle_v_vEPNS0_8constantE
libqucs.so:_ZN4qucs3eqn8evaluate17interpolate_v_v_dEPNS0_8constantE
libqucs.so:_ZN4qucs3eqn8evaluate18greaterorequal_c_cEPNS0_8constantE
libqucs.so:_ZN4qucs3eqn8evaluate18greaterorequal_c_dEPNS0_8constantE
libqucs.so:_ZN4qucs3eqn8evaluate18greaterorequal_c_vEPNS0_8constantE
libqucs.so:_ZN4qucs3eqn8evaluate18greaterorequal_d_cEPNS0_8constantE
libqucs.so:_ZN4qucs3eqn8evaluate18greaterorequal_d_dEPNS0_8constantE
libqucs.so:_ZN4qucs3eqn8evaluate18greaterorequal_d_vEPNS0_8constantE
libqucs.so:_ZN4qucs3eqn8evaluate18greaterorequal_v_cEPNS0_8constantE
libqucs.so:_ZN4qucs3eqn8evaluate18greaterorequal_v_dEPNS0_8constantE
libqucs.so:_ZN4qucs3eqn8evaluate18greaterorequal_v_vEPNS0_8constantE
libqucs.so:_ZN4qucs3eqn8evaluate4b1_mEPNS0_8constantE
libqucs.so:_ZN4qucs3eqn8evaluate4dB_cEPNS0_8constantE
libqucs.so:_ZN4qucs3eqn8evaluate4dB_dEPNS0_8constantE
libqucs.so:_ZN4qucs3eqn8evaluate4dB_mEPNS0_8constantE
libqucs.so:_ZN4qucs3eqn8evaluate4dB_vEPNS0_8constantE
libqucs.so:_ZN4qucs3eqn8evaluate4i0_cEPNS0_8constantE
libqucs.so:_ZN4qucs3eqn8evaluate4i0_dEPNS0_8constantE
libqucs.so:_ZN4qucs3eqn8evaluate4i0_vEPNS0_8constantE
libqucs.so:_ZN4qucs3eqn8evaluate4ln_cEPNS0_8constantE
libqucs.so:_ZN4qucs3eqn8evaluate4ln_dEPNS0_8constantE
libqucs.so:_ZN4qucs3eqn8evaluate4ln_vEPNS0_8constantE
libqucs.so:_ZN4qucs3eqn8evaluate4randEPNS0_8constantE
libqucs.so:_ZN4qucs3eqn8evaluate4vt_cEPNS0_8constantE
libqucs.so:_ZN4qucs3eqn8evaluate4vt_dEPNS0_8constantE
libqucs.so:_ZN4qucs3eqn8evaluate4vt_vEPNS0_8constantE
libqucs.so:_ZN4qucs3eqn8evaluate5abs_cEPNS0_8constantE
libqucs.so:_ZN4qucs3eqn8evaluate5abs_dEPNS0_8constantE
libqucs.so:_ZN4qucs3eqn8evaluate5abs_mEPNS0_8constantE
libqucs.so:_ZN4qucs3eqn8evaluate5abs_vEPNS0_8constantE
libqucs.so:_ZN4qucs3eqn8evaluate5arg_cEPNS0_8constantE
libqucs.so:_ZN4qucs3eqn8evaluate5arg_dEPNS0_8constantE
libqucs.so:_ZN4qucs3eqn8evaluate5arg_mEPNS0_8constantE
libqucs.so:_ZN4qucs3eqn8evaluate5arg_vEPNS0_8constantE
libqucs.so:_ZN4qucs3eqn8evaluate5avg_cEPNS0_8constantE
libqucs.so:_ZN4qucs3eqn8evaluate5avg_dEPNS0_8constantE
libqucs.so:_ZN4qucs3eqn8evaluate5avg_rEPNS0_8constantE
libqucs.so:_ZN4qucs3eqn8evaluate5avg_vEPNS0_8constantE
libqucs.so:_ZN4qucs3eqn8evaluate5b1_mvEPNS0_8constantE
libqucs.so:_ZN4qucs3eqn8evaluate5cos_cEPNS0_8constantE
libqucs.so:_ZN4qucs3eqn8evaluate5cos_dEPNS0_8constantE
libqucs.so:_ZN4qucs3eqn8evaluate5cos_vEPNS0_8constantE
libqucs.so:_ZN4qucs3eqn8evaluate5cot_cEPNS0_8constantE
libqucs.so:_ZN4qucs3eqn8evaluate5cot_dEPNS0_8constantE
libqucs.so:_ZN4qucs3eqn8evaluate5cot_vEPNS0_8constantE
libqucs.so:_ZN4qucs3eqn8evaluate5dB_mvEPNS0_8constantE
libqucs.so:_ZN4qucs3eqn8evaluate5dbm_cEPNS0_8constantE
libqucs.so:_ZN4qucs3eqn8evaluate5dbm_dEPNS0_8constantE
libqucs.so:_ZN4qucs3eqn8evaluate5dbm_vEPNS0_8constantE
libqucs.so:_ZN4qucs3eqn8evaluate5det_mEPNS0_8constantE
libqucs.so:_ZN4qucs3eqn8evaluate5dft_vEPNS0_8constantE
libqucs.so:_ZN4qucs3eqn8evaluate5erf_cEPNS0_8constantE
libqucs.so:_ZN4qucs3eqn8evaluate5erf_dEPNS0_8constantE
libqucs.so:_ZN4qucs3eqn8evaluate5erf_vEPNS0_8constantE
libqucs.so:_ZN4qucs3eqn8evaluate5exp_cEPNS0_8constantE
libqucs.so:_ZN4qucs3eqn8evaluate5exp_dEPNS0_8constantE
libqucs.so:_ZN4qucs3eqn8evaluate5exp_vEPNS0_8constantE
libqucs.so:_ZN4qucs3eqn8evaluate5eye_mEPNS0_8constantE
libqucs.so:_ZN4qucs3eqn8evaluate5fft_vEPNS0_8constantE
libqucs.so:_ZN4qucs3eqn8evaluate5fix_cEPNS0_8constantE
libqucs.so:_ZN4qucs3eqn8evaluate5fix_dEPNS0_8constantE
libqucs.so:_ZN4qucs3eqn8evaluate5fix_vEPNS0_8constantE
libqucs.so:_ZN4qucs3eqn8evaluate5kbd_dEPNS0_8constantE
libqucs.so:_ZN4qucs3eqn8evaluate5max_cEPNS0_8constantE
libqucs.so:_ZN4qucs3eqn8evaluate5max_dEPNS0_8constantE
libqucs.so:_ZN4qucs3eqn8evaluate5max_rEPNS0_8constantE
libqucs.so:_ZN4qucs3eqn8evaluate5max_vEPNS0_8constantE
libqucs.so:_ZN4qucs3eqn8evaluate5min_cEPNS0_8constantE
libqucs.so:_ZN4qucs3eqn8evaluate5min_dEPNS0_8constantE
libqucs.so:_ZN4qucs3eqn8evaluate5min_rEPNS0_8constantE
libqucs.so:_ZN4qucs3eqn8evaluate5min_vEPNS0_8constantE
libqucs.so:_ZN4qucs3eqn8evaluate5mu1_mEPNS0_8constantE
libqucs.so:_ZN4qucs3eqn8evaluate5mu2_mEPNS0_8constantE
libqucs.so:_ZN4qucs3eqn8evaluate5not_bEPNS0_8constantE
libqucs.so:_ZN4qucs3eqn8evaluate5rms_cEPNS0_8constantE
libqucs.so:_ZN4qucs3eqn8evaluate5rms_dEPNS0_8constantE
libqucs.so:_ZN4qucs3eqn8evaluate5rms_vEPNS0_8constantE
libqucs.so:_ZN4qucs3eqn8evaluate5sec_cEPNS0_8constantE
libqucs.so:_ZN4qucs3eqn8evaluate5sec_dEPNS0_8constantE
libqucs.so:_ZN4qucs3eqn8evaluate5sec_vEPNS0_8constantE
libqucs.so:_ZN4qucs3eqn8evaluate5sin_cEPNS0_8constantE
libqucs.so:_ZN4qucs3eqn8evaluate5sin_dEPNS0_8constantE
libqucs.so:_ZN4qucs3eqn8evaluate5sin_vEPNS0_8constantE
libqucs.so:_ZN4qucs3eqn8evaluate5sqr_cEPNS0_8constantE
libqucs.so:_ZN4qucs3eqn8evaluate5sqr_dEPNS0_8constantE
libqucs.so:_ZN4qucs3eqn8evaluate5sqr_mEPNS0_8constantE
libqucs.so:_ZN4qucs3eqn8evaluate5sqr_vEPNS0_8constantE
libqucs.so:_ZN4qucs3eqn8evaluate5sum_cEPNS0_8constantE
libqucs.so:_ZN4qucs3eqn8evaluate5sum_dEPNS0_8constantE
libqucs.so:_ZN4qucs3eqn8evaluate5sum_vEPNS0_8constantE
libqucs.so:_ZN4qucs3eqn8evaluate5tan_cEPNS0_8constantE
libqucs.so:_ZN4qucs3eqn8evaluate5tan_dEPNS0_8constantE
libqucs.so:_ZN4qucs3eqn8evaluate5tan_vEPNS0_8constantE
libqucs.so:_ZN4qucs3eqn8evaluate6abs_mvEPNS0_8constantE
libqucs.so:_ZN4qucs3eqn8evaluate6arg_mvEPNS0_8constantE
libqucs.so:_ZN4qucs3eqn8evaluate6ceil_cEPNS0_8constantE
libqucs.so:_ZN4qucs3eqn8evaluate6ceil_dEPNS0_8constantE
libqucs.so:_ZN4qucs3eqn8evaluate6ceil_vEPNS0_8constantE
libqucs.so:_ZN4qucs3eqn8evaluate6conj_cEPNS0_8constantE
libqucs.so:_ZN4qucs3eqn8evaluate6conj_dEPNS0_8constantE
libqucs.so:_ZN4qucs3eqn8evaluate6conj_mEPNS0_8constantE
libqucs.so:_ZN4qucs3eqn8evaluate6conj_vEPNS0_8constantE
libqucs.so:_ZN4qucs3eqn8evaluate6cosh_cEPNS0_8constantE
libqucs.so:_ZN4qucs3eqn8evaluate6cosh_dEPNS0_8constantE
libqucs.so:_ZN4qucs3eqn8evaluate6cosh_vEPNS0_8constantE
libqucs.so:_ZN4qucs3eqn8evaluate6coth_cEPNS0_8constantE
libqucs.so:_ZN4qucs3eqn8evaluate6coth_dEPNS0_8constantE
libqucs.so:_ZN4qucs3eqn8evaluate6coth_vEPNS0_8constantE
libqucs.so:_ZN4qucs3eqn8evaluate6det_mvEPNS0_8constantE
libqucs.so:_ZN4qucs3eqn8evaluate6erfc_cEPNS0_8constantE
libqucs.so:_ZN4qucs3eqn8evaluate6erfc_dEPNS0_8constantE
libqucs.so:_ZN4qucs3eqn8evaluate6erfc_vEPNS0_8constantE
libqucs.so:_ZN4qucs3eqn8evaluate6idft_vEPNS0_8constantE
libqucs.so:_ZN4qucs3eqn8evaluate6ifft_vEPNS0_8constantE
libqucs.so:_ZN4qucs3eqn8evaluate6imag_cEPNS0_8constantE
libqucs.so:_ZN4qucs3eqn8evaluate6imag_dEPNS0_8constantE
libqucs.so:_ZN4qucs3eqn8evaluate6imag_mEPNS0_8constantE
libqucs.so:_ZN4qucs3eqn8evaluate6imag_vEPNS0_8constantE
libqucs.so:_ZN4qucs3eqn8evaluate6jn_d_cEPNS0_8constantE
libqucs.so:_ZN4qucs3eqn8evaluate6jn_d_dEPNS0_8constantE
libqucs.so:_ZN4qucs3eqn8evaluate6jn_d_vEPNS0_8constantE
libqucs.so:_ZN4qucs3eqn8evaluate6log2_cEPNS0_8constantE
libqucs.so:_ZN4qucs3eqn8evaluate6log2_dEPNS0_8constantE
libqucs.so:_ZN4qucs3eqn8evaluate6log2_vEPNS0_8constantE
libqucs.so:_ZN4qucs3eqn8evaluate6mu1_mvEPNS0_8constantE
libqucs.so:_ZN4qucs3eqn8evaluate6mu2_mvEPNS0_8constantE
libqucs.so:_ZN4qucs3eqn8evaluate6norm_cEPNS0_8constantE
libqucs.so:_ZN4qucs3eqn8evaluate6norm_dEPNS0_8constantE
libqucs.so:_ZN4qucs3eqn8evaluate6norm_vEPNS0_8constantE
libqucs.so:_ZN4qucs3eqn8evaluate6or_b_bEPNS0_8constantE
libqucs.so:_ZN4qucs3eqn8evaluate6plus_cEPNS0_8constantE
libqucs.so:_ZN4qucs3eqn8evaluate6plus_dEPNS0_8constantE
libqucs.so:_ZN4qucs3eqn8evaluate6plus_mEPNS0_8constantE
libqucs.so:_ZN4qucs3eqn8evaluate6plus_vEPNS0_8constantE
libqucs.so:_ZN4qucs3eqn8evaluate6prod_cEPNS0_8constantE
libqucs.so:_ZN4qucs3eqn8evaluate6prod_dEPNS0_8constantE
libqucs.so:_ZN4qucs3eqn8evaluate6prod_vEPNS0_8constantE
libqucs.so:_ZN4qucs3eqn8evaluate6real_cEPNS0_8constantE
libqucs.so:_ZN4qucs3eqn8evaluate6real_dEPNS0_8constantE
libqucs.so:_ZN4qucs3eqn8evaluate6real_mEPNS0_8constantE
libqucs.so:_ZN4qucs3eqn8evaluate6real_vEPNS0_8constantE
libqucs.so:_ZN4qucs3eqn8evaluate6rtoy_cEPNS0_8constantE
libqucs.so:_ZN4qucs3eqn8evaluate6rtoy_dEPNS0_8constantE
libqucs.so:_ZN4qucs3eqn8evaluate6rtoy_vEPNS0_8constantE
libqucs.so:_ZN4qucs3eqn8evaluate6rtoz_cEPNS0_8constantE
libqucs.so:_ZN4qucs3eqn8evaluate6rtoz_dEPNS0_8constantE
libqucs.so:_ZN4qucs3eqn8evaluate6rtoz_vEPNS0_8constantE
libqucs.so:_ZN4qucs3eqn8evaluate6sech_cEPNS0_8constantE
libqucs.so:_ZN4qucs3eqn8evaluate6sech_dEPNS0_8constantE
libqucs.so:_ZN4qucs3eqn8evaluate6sech_vEPNS0_8constantE
libqucs.so:_ZN4qucs3eqn8evaluate6sign_cEPNS0_8constantE
libqucs.so:_ZN4qucs3eqn8evaluate6sign_dEPNS0_8constantE
libqucs.so:_ZN4qucs3eqn8evaluate6sign_vEPNS0_8constantE
libqucs.so:_ZN4qucs3eqn8evaluate6sinc_cEPNS0_8constantE
libqucs.so:_ZN4qucs3eqn8evaluate6sinc_dEPNS0_8constantE
libqucs.so:_ZN4qucs3eqn8evaluate6sinc_vEPNS0_8constantE
libqucs.so:_ZN4qucs3eqn8evaluate6sinh_cEPNS0_8constantE
libqucs.so:_ZN4qucs3eqn8evaluate6sinh_dEPNS0_8constantE
libqucs.so:_ZN4qucs3eqn8evaluate6sinh_vEPNS0_8constantE
libqucs.so:_ZN4qucs3eqn8evaluate6sqr_mvEPNS0_8constantE
libqucs.so:_ZN4qucs3eqn8evaluate6sqrt_cEPNS0_8constantE
libqucs.so:_ZN4qucs3eqn8evaluate6sqrt_dEPNS0_8constantE
libqucs.so:_ZN4qucs3eqn8evaluate6sqrt_vEPNS0_8constantE
libqucs.so:_ZN4qucs3eqn8evaluate6step_cEPNS0_8constantE
libqucs.so:_ZN4qucs3eqn8evaluate6step_dEPNS0_8constantE
libqucs.so:_ZN4qucs3eqn8evaluate6step_vEPNS0_8constantE
libqucs.so:_ZN4qucs3eqn8evaluate6stoy_mEPNS0_8constantE
libqucs.so:_ZN4qucs3eqn8evaluate6stoz_mEPNS0_8constantE
libqucs.so:_ZN4qucs3eqn8evaluate6tanh_cEPNS0_8constantE
libqucs.so:_ZN4qucs3eqn8evaluate6tanh_dEPNS0_8constantE
libqucs.so:_ZN4qucs3eqn8evaluate6tanh_vEPNS0_8constantE
libqucs.so:_ZN4qucs3eqn8evaluate6yn_d_cEPNS0_8constantE
libqucs.so:_ZN4qucs3eqn8evaluate6yn_d_dEPNS0_8constantE
libqucs.so:_ZN4qucs3eqn8evaluate6yn_d_vEPNS0_8constantE
libqucs.so:_ZN4qucs3eqn8evaluate6ytor_cEPNS0_8constantE
libqucs.so:_ZN4qucs3eqn8evaluate6ytor_dEPNS0_8constantE
libqucs.so:_ZN4qucs3eqn8evaluate6ytor_vEPNS0_8constantE
libqucs.so:_ZN4qucs3eqn8evaluate6ytos_mEPNS0_8constantE
libqucs.so:_ZN4qucs3eqn8evaluate6ytoz_mEPNS0_8constantE
libqucs.so:_ZN4qucs3eqn8evaluate6ztor_cEPNS0_8constantE
libqucs.so:_ZN4qucs3eqn8evaluate6ztor_dEPNS0_8constantE
libqucs.so:_ZN4qucs3eqn8evaluate6ztor_vEPNS0_8constantE
libqucs.so:_ZN4qucs3eqn8evaluate6ztos_mEPNS0_8constantE
libqucs.so:_ZN4qucs3eqn8evaluate6ztoy_mEPNS0_8constantE
libqucs.so:_ZN4qucs3eqn8evaluate7and_b_bEPNS0_8constantE
libqucs.so:_ZN4qucs3eqn8evaluate7bugon_bEPNS0_8constantE
libqucs.so:_ZN4qucs3eqn8evaluate7bugon_dEPNS0_8constantE
libqucs.so:_ZN4qucs3eqn8evaluate7bugon_vEPNS0_8constantE
libqucs.so:_ZN4qucs3eqn8evaluate7conj_mvEPNS0_8constantE
libqucs.so:_ZN4qucs3eqn8evaluate7cosec_cEPNS0_8constantE
libqucs.so:_ZN4qucs3eqn8evaluate7cosec_dEPNS0_8constantE
libqucs.so:_ZN4qucs3eqn8evaluate7cosec_vEPNS0_8constantE
libqucs.so:_ZN4qucs3eqn8evaluate7dbm2w_cEPNS0_8constantE
libqucs.so:_ZN4qucs3eqn8evaluate7dbm2w_dEPNS0_8constantE
libqucs.so:_ZN4qucs3eqn8evaluate7dbm2w_vEPNS0_8constantE
libqucs.so:_ZN4qucs3eqn8evaluate7dbm_c_cEPNS0_8constantE
libqucs.so:_ZN4qucs3eqn8evaluate7dbm_c_dEPNS0_8constantE
libqucs.so:_ZN4qucs3eqn8evaluate7dbm_d_cEPNS0_8constantE
libqucs.so:_ZN4qucs3eqn8evaluate7dbm_d_dEPNS0_8constantE
libqucs.so:_ZN4qucs3eqn8evaluate7dbm_v_cEPNS0_8constantE
libqucs.so:_ZN4qucs3eqn8evaluate7dbm_v_dEPNS0_8constantE
libqucs.so:_ZN4qucs3eqn8evaluate7floor_cEPNS0_8constantE
libqucs.so:_ZN4qucs3eqn8evaluate7floor_dEPNS0_8constantE
libqucs.so:_ZN4qucs3eqn8evaluate7floor_vEPNS0_8constantE
libqucs.so:_ZN4qucs3eqn8evaluate7imag_mvEPNS0_8constantE
libqucs.so:_ZN4qucs3eqn8evaluate7kbd_d_dEPNS0_8constantE
libqucs.so:_ZN4qucs3eqn8evaluate7log10_cEPNS0_8constantE
libqucs.so:_ZN4qucs3eqn8evaluate7log10_dEPNS0_8constantE
libqucs.so:_ZN4qucs3eqn8evaluate7log10_vEPNS0_8constantE
libqucs.so:_ZN4qucs3eqn8evaluate7max_c_cEPNS0_8constantE
libqucs.so:_ZN4qucs3eqn8evaluate7max_c_dEPNS0_8constantE
libqucs.so:_ZN4qucs3eqn8evaluate7max_d_cEPNS0_8constantE
libqucs.so:_ZN4qucs3eqn8evaluate7max_d_dEPNS0_8constantE
libqucs.so:_ZN4qucs3eqn8evaluate7min_c_cEPNS0_8constantE
libqucs.so:_ZN4qucs3eqn8evaluate7min_c_dEPNS0_8constantE
libqucs.so:_ZN4qucs3eqn8evaluate7min_d_cEPNS0_8constantE
libqucs.so:_ZN4qucs3eqn8evaluate7min_d_dEPNS0_8constantE
libqucs.so:_ZN4qucs3eqn8evaluate7minus_cEPNS0_8constantE
libqucs.so:_ZN4qucs3eqn8evaluate7minus_dEPNS0_8constantE
libqucs.so:_ZN4qucs3eqn8evaluate7minus_mEPNS0_8constantE
libqucs.so:_ZN4qucs3eqn8evaluate7minus_vEPNS0_8constantE
libqucs.so:_ZN4qucs3eqn8evaluate7phase_cEPNS0_8constantE
libqucs.so:_ZN4qucs3eqn8evaluate7phase_dEPNS0_8constantE
libqucs.so:_ZN4qucs3eqn8evaluate7phase_mEPNS0_8constantE
libqucs.so:_ZN4qucs3eqn8evaluate7phase_vEPNS0_8constantE
libqucs.so:_ZN4qucs3eqn8evaluate7plus_mvEPNS0_8constantE
libqucs.so:_ZN4qucs3eqn8evaluate7real_mvEPNS0_8constantE
libqucs.so:_ZN4qucs3eqn8evaluate7round_cEPNS0_8constantE
libqucs.so:_ZN4qucs3eqn8evaluate7round_dEPNS0_8constantE
libqucs.so:_ZN4qucs3eqn8evaluate7round_vEPNS0_8constantE
libqucs.so:_ZN4qucs3eqn8evaluate7srand_dEPNS0_8constantE
libqucs.so:_ZN4qucs3eqn8evaluate7stoy_mvEPNS0_8constantE
libqucs.so:_ZN4qucs3eqn8evaluate7stoz_mvEPNS0_8constantE
libqucs.so:_ZN4qucs3eqn8evaluate7w2dbm_cEPNS0_8constantE
libqucs.so:_ZN4qucs3eqn8evaluate7w2dbm_dEPNS0_8constantE
libqucs.so:_ZN4qucs3eqn8evaluate7w2dbm_vEPNS0_8constantE
libqucs.so:_ZN4qucs3eqn8evaluate7ytos_mvEPNS0_8constantE
libqucs.so:_ZN4qucs3eqn8evaluate7ytoz_mvEPNS0_8constantE
libqucs.so:_ZN4qucs3eqn8evaluate7ztos_mvEPNS0_8constantE
libqucs.so:_ZN4qucs3eqn8evaluate7ztoy_mvEPNS0_8constantE
libqucs.so:_ZN4qucs3eqn8evaluate8arccos_cEPNS0_8constantE
libqucs.so:_ZN4qucs3eqn8evaluate8arccos_dEPNS0_8constantE
libqucs.so:_ZN4qucs3eqn8evaluate8arccos_vEPNS0_8constantE
libqucs.so:_ZN4qucs3eqn8evaluate8arccot_cEPNS0_8constantE
libqucs.so:_ZN4qucs3eqn8evaluate8arccot_dEPNS0_8constantE
libqucs.so:_ZN4qucs3eqn8evaluate8arccot_vEPNS0_8constantE
libqucs.so:_ZN4qucs3eqn8evaluate8arcosh_cEPNS0_8constantE
libqucs.so:_ZN4qucs3eqn8evaluate8arcosh_dEPNS0_8constantE
libqucs.so:_ZN4qucs3eqn8evaluate8arcosh_vEPNS0_8constantE
libqucs.so:_ZN4qucs3eqn8evaluate8arcoth_cEPNS0_8constantE
libqucs.so:_ZN4qucs3eqn8evaluate8arcoth_dEPNS0_8constantE
libqucs.so:_ZN4qucs3eqn8evaluate8arcoth_vEPNS0_8constantE
libqucs.so:_ZN4qucs3eqn8evaluate8arcsec_cEPNS0_8constantE
libqucs.so:_ZN4qucs3eqn8evaluate8arcsec_dEPNS0_8constantE
libqucs.so:_ZN4qucs3eqn8evaluate8arcsec_vEPNS0_8constantE
libqucs.so:_ZN4qucs3eqn8evaluate8arcsin_cEPNS0_8constantE
libqucs.so:_ZN4qucs3eqn8evaluate8arcsin_dEPNS0_8constantE
libqucs.so:_ZN4qucs3eqn8evaluate8arcsin_vEPNS0_8constantE
libqucs.so:_ZN4qucs3eqn8evaluate8arctan_cEPNS0_8constantE
libqucs.so:_ZN4qucs3eqn8evaluate8arctan_dEPNS0_8constantE
libqucs.so:_ZN4qucs3eqn8evaluate8arctan_vEPNS0_8constantE
libqucs.so:_ZN4qucs3eqn8evaluate8arsech_cEPNS0_8constantE
libqucs.so:_ZN4qucs3eqn8evaluate8arsech_dEPNS0_8constantE
libqucs.so:_ZN4qucs3eqn8evaluate8arsech_vEPNS0_8constantE
libqucs.so:_ZN4qucs3eqn8evaluate8arsinh_cEPNS0_8constantE
libqucs.so:_ZN4qucs3eqn8evaluate8arsinh_dEPNS0_8constantE
libqucs.so:_ZN4qucs3eqn8evaluate8arsinh_vEPNS0_8constantE
libqucs.so:_ZN4qucs3eqn8evaluate8artanh_cEPNS0_8constantE
libqucs.so:_ZN4qucs3eqn8evaluate8artanh_dEPNS0_8constantE
libqucs.so:_ZN4qucs3eqn8evaluate8artanh_vEPNS0_8constantE
libqucs.so:_ZN4qucs3eqn8evaluate8assert_bEPNS0_8constantE
libqucs.so:_ZN4qucs3eqn8evaluate8assert_dEPNS0_8constantE
libqucs.so:_ZN4qucs3eqn8evaluate8assert_vEPNS0_8constantE
libqucs.so:_ZN4qucs3eqn8evaluate8cosech_cEPNS0_8constantE
libqucs.so:_ZN4qucs3eqn8evaluate8cosech_dEPNS0_8constantE
libqucs.so:_ZN4qucs3eqn8evaluate8cosech_vEPNS0_8constantE
libqucs.so:_ZN4qucs3eqn8evaluate8cumavg_cEPNS0_8constantE
libqucs.so:_ZN4qucs3eqn8evaluate8cumavg_dEPNS0_8constantE
libqucs.so:_ZN4qucs3eqn8evaluate8cumavg_vEPNS0_8constantE
libqucs.so:_ZN4qucs3eqn8evaluate8cumsum_cEPNS0_8constantE
libqucs.so:_ZN4qucs3eqn8evaluate8cumsum_dEPNS0_8constantE
libqucs.so:_ZN4qucs3eqn8evaluate8cumsum_vEPNS0_8constantE
libqucs.so:_ZN4qucs3eqn8evaluate8diff_v_2EPNS0_8constantE
libqucs.so:_ZN4qucs3eqn8evaluate8diff_v_3EPNS0_8constantE
libqucs.so:_ZN4qucs3eqn8evaluate8erfinv_cEPNS0_8constantE
libqucs.so:_ZN4qucs3eqn8evaluate8erfinv_dEPNS0_8constantE
libqucs.so:_ZN4qucs3eqn8evaluate8erfinv_vEPNS0_8constantE
libqucs.so:_ZN4qucs3eqn8evaluate8length_cEPNS0_8constantE
libqucs.so:_ZN4qucs3eqn8evaluate8length_dEPNS0_8constantE
libqucs.so:_ZN4qucs3eqn8evaluate8length_mEPNS0_8constantE
libqucs.so:_ZN4qucs3eqn8evaluate8length_vEPNS0_8constantE
libqucs.so:_ZN4qucs3eqn8evaluate8less_c_cEPNS0_8constantE
libqucs.so:_ZN4qucs3eqn8evaluate8less_c_dEPNS0_8constantE
libqucs.so:_ZN4qucs3eqn8evaluate8less_c_vEPNS0_8constantE
libqucs.so:_ZN4qucs3eqn8evaluate8less_d_cEPNS0_8constantE
libqucs.so:_ZN4qucs3eqn8evaluate8less_d_dEPNS0_8constantE
libqucs.so:_ZN4qucs3eqn8evaluate8less_d_vEPNS0_8constantE
libqucs.so:_ZN4qucs3eqn8evaluate8less_v_cEPNS0_8constantE
libqucs.so:_ZN4qucs3eqn8evaluate8less_v_dEPNS0_8constantE
libqucs.so:_ZN4qucs3eqn8evaluate8less_v_vEPNS0_8constantE
libqucs.so:_ZN4qucs3eqn8evaluate8limexp_cEPNS0_8constantE
libqucs.so:_ZN4qucs3eqn8evaluate8limexp_dEPNS0_8constantE
libqucs.so:_ZN4qucs3eqn8evaluate8limexp_vEPNS0_8constantE
libqucs.so:_ZN4qucs3eqn8evaluate8linspaceEPNS0_8constantE
libqucs.so:_ZN4qucs3eqn8evaluate8logspaceEPNS0_8constantE
libqucs.so:_ZN4qucs3eqn8evaluate8matrix_xEPNS0_8constantE
libqucs.so:_ZN4qucs3eqn8evaluate8minus_mvEPNS0_8constantE
libqucs.so:_ZN4qucs3eqn8evaluate8over_c_cEPNS0_8constantE
libqucs.so:_ZN4qucs3eqn8evaluate8over_c_dEPNS0_8constantE
libqucs.so:_ZN4qucs3eqn8evaluate8over_c_vEPNS0_8constantE
libqucs.so:_ZN4qucs3eqn8evaluate8over_d_cEPNS0_8constantE
libqucs.so:_ZN4qucs3eqn8evaluate8over_d_dEPNS0_8constantE
libqucs.so:_ZN4qucs3eqn8evaluate8over_d_vEPNS0_8constantE
libqucs.so:_ZN4qucs3eqn8evaluate8over_m_cEPNS0_8constantE
libqucs.so:_ZN4qucs3eqn8evaluate8over_m_dEPNS0_8constantE
libqucs.so:_ZN4qucs3eqn8evaluate8over_v_cEPNS0_8constantE
libqucs.so:_ZN4qucs3eqn8evaluate8over_v_dEPNS0_8constantE
libqucs.so:_ZN4qucs3eqn8evaluate8over_v_vEPNS0_8constantE
libqucs.so:_ZN4qucs3eqn8evaluate8phase_mvEPNS0_8constantE
libqucs.so:_ZN4qucs3eqn8evaluate8plus_c_cEPNS0_8constantE
libqucs.so:_ZN4qucs3eqn8evaluate8plus_c_dEPNS0_8constantE
libqucs.so:_ZN4qucs3eqn8evaluate8plus_c_mEPNS0_8constantE
libqucs.so:_ZN4qucs3eqn8evaluate8plus_c_sEPNS0_8constantE
libqucs.so:_ZN4qucs3eqn8evaluate8plus_c_vEPNS0_8constantE
libqucs.so:_ZN4qucs3eqn8evaluate8plus_d_cEPNS0_8constantE
libqucs.so:_ZN4qucs3eqn8evaluate8plus_d_dEPNS0_8constantE
libqucs.so:_ZN4qucs3eqn8evaluate8plus_d_mEPNS0_8constantE
libqucs.so:_ZN4qucs3eqn8evaluate8plus_d_vEPNS0_8constantE
libqucs.so:_ZN4qucs3eqn8evaluate8plus_m_cEPNS0_8constantE
libqucs.so:_ZN4qucs3eqn8evaluate8plus_m_dEPNS0_8constantE
libqucs.so:_ZN4qucs3eqn8evaluate8plus_m_mEPNS0_8constantE
libqucs.so:_ZN4qucs3eqn8evaluate8plus_s_cEPNS0_8constantE
libqucs.so:_ZN4qucs3eqn8evaluate8plus_s_sEPNS0_8constantE
libqucs.so:_ZN4qucs3eqn8evaluate8plus_v_cEPNS0_8constantE
libqucs.so:_ZN4qucs3eqn8evaluate8plus_v_dEPNS0_8constantE
libqucs.so:_ZN4qucs3eqn8evaluate8plus_v_vEPNS0_8constantE
libqucs.so:_ZN4qucs3eqn8evaluate8rollet_mEPNS0_8constantE
libqucs.so:_ZN4qucs3eqn8evaluate8rtoswr_cEPNS0_8constantE
libqucs.so:_ZN4qucs3eqn8evaluate8rtoswr_dEPNS0_8constantE
libqucs.so:_ZN4qucs3eqn8evaluate8rtoswr_vEPNS0_8constantE
libqucs.so:_ZN4qucs3eqn8evaluate8rtoy_c_cEPNS0_8constantE
libqucs.so:_ZN4qucs3eqn8evaluate8rtoy_c_dEPNS0_8constantE
libqucs.so:_ZN4qucs3eqn8evaluate8rtoy_d_cEPNS0_8constantE
libqucs.so:_ZN4qucs3eqn8evaluate8rtoy_d_dEPNS0_8constantE
libqucs.so:_ZN4qucs3eqn8evaluate8rtoy_v_cEPNS0_8constantE
libqucs.so:_ZN4qucs3eqn8evaluate8rtoy_v_dEPNS0_8constantE
libqucs.so:_ZN4qucs3eqn8evaluate8rtoz_c_cEPNS0_8constantE
libqucs.so:_ZN4qucs3eqn8evaluate8rtoz_c_dEPNS0_8constantE
libqucs.so:_ZN4qucs3eqn8evaluate8rtoz_d_cEPNS0_8constantE
libqucs.so:_ZN4qucs3eqn8evaluate8rtoz_d_dEPNS0_8constantE
libqucs.so:_ZN4qucs3eqn8evaluate8rtoz_v_cEPNS0_8constantE
libqucs.so:_ZN4qucs3eqn8evaluate8rtoz_v_dEPNS0_8constantE
libqucs.so:_ZN4qucs3eqn8evaluate8signum_cEPNS0_8constantE
libqucs.so:_ZN4qucs3eqn8evaluate8signum_dEPNS0_8constantE
libqucs.so:_ZN4qucs3eqn8evaluate8signum_vEPNS0_8constantE
libqucs.so:_ZN4qucs3eqn8evaluate8stddev_cEPNS0_8constantE
libqucs.so:_ZN4qucs3eqn8evaluate8stddev_dEPNS0_8constantE
libqucs.so:_ZN4qucs3eqn8evaluate8stddev_vEPNS0_8constantE
libqucs.so:_ZN4qucs3eqn8evaluate8stos_m_cEPNS0_8constantE
libqucs.so:_ZN4qucs3eqn8evaluate8stos_m_dEPNS0_8constantE
libqucs.so:_ZN4qucs3eqn8evaluate8stos_m_vEPNS0_8constantE
libqucs.so:_ZN4qucs3eqn8evaluate8stoy_m_cEPNS0_8constantE
libqucs.so:_ZN4qucs3eqn8evaluate8stoy_m_dEPNS0_8constantE
libqucs.so:_ZN4qucs3eqn8evaluate8stoy_m_vEPNS0_8constantE
libqucs.so:_ZN4qucs3eqn8evaluate8stoz_m_cEPNS0_8constantE
libqucs.so:_ZN4qucs3eqn8evaluate8stoz_m_dEPNS0_8constantE
libqucs.so:_ZN4qucs3eqn8evaluate8stoz_m_vEPNS0_8constantE
libqucs.so:_ZN4qucs3eqn8evaluate8vector_xEPNS0_8constantE
libqucs.so:_ZN4qucs3eqn8evaluate8xvalue_cEPNS0_8constantE
libqucs.so:_ZN4qucs3eqn8evaluate8xvalue_dEPNS0_8constantE
libqucs.so:_ZN4qucs3eqn8evaluate8ytor_c_cEPNS0_8constantE
libqucs.so:_ZN4qucs3eqn8evaluate8ytor_c_dEPNS0_8constantE
libqucs.so:_ZN4qucs3eqn8evaluate8ytor_d_cEPNS0_8constantE
libqucs.so:_ZN4qucs3eqn8evaluate8ytor_d_dEPNS0_8constantE
libqucs.so:_ZN4qucs3eqn8evaluate8ytor_v_cEPNS0_8constantE
libqucs.so:_ZN4qucs3eqn8evaluate8ytor_v_dEPNS0_8constantE
libqucs.so:_ZN4qucs3eqn8evaluate8ytos_m_cEPNS0_8constantE
libqucs.so:_ZN4qucs3eqn8evaluate8ytos_m_dEPNS0_8constantE
libqucs.so:_ZN4qucs3eqn8evaluate8ytos_m_vEPNS0_8constantE
libqucs.so:_ZN4qucs3eqn8evaluate8yvalue_cEPNS0_8constantE
libqucs.so:_ZN4qucs3eqn8evaluate8yvalue_dEPNS0_8constantE
libqucs.so:_ZN4qucs3eqn8evaluate8ztor_c_cEPNS0_8constantE
libqucs.so:_ZN4qucs3eqn8evaluate8ztor_c_dEPNS0_8constantE
libqucs.so:_ZN4qucs3eqn8evaluate8ztor_d_cEPNS0_8constantE
libqucs.so:_ZN4qucs3eqn8evaluate8ztor_d_dEPNS0_8constantE
libqucs.so:_ZN4qucs3eqn8evaluate8ztor_v_cEPNS0_8constantE
libqucs.so:_ZN4qucs3eqn8evaluate8ztor_v_dEPNS0_8constantE
libqucs.so:_ZN4qucs3eqn8evaluate8ztos_m_cEPNS0_8constantE
libqucs.so:_ZN4qucs3eqn8evaluate8ztos_m_dEPNS0_8constantE
libqucs.so:_ZN4qucs3eqn8evaluate8ztos_m_vEPNS0_8constantE
libqucs.so:_ZN4qucs3eqn8evaluate9adjoint_mEPNS0_8constantE
libqucs.so:_ZN4qucs3eqn8evaluate9cumprod_cEPNS0_8constantE
libqucs.so:_ZN4qucs3eqn8evaluate9cumprod_dEPNS0_8constantE
libqucs.so:_ZN4qucs3eqn8evaluate9cumprod_vEPNS0_8constantE
libqucs.so:_ZN4qucs3eqn8evaluate9deg2rad_cEPNS0_8constantE
libqucs.so:_ZN4qucs3eqn8evaluate9deg2rad_dEPNS0_8constantE
libqucs.so:_ZN4qucs3eqn8evaluate9deg2rad_vEPNS0_8constantE
libqucs.so:_ZN4qucs3eqn8evaluate9equal_b_bEPNS0_8constantE
libqucs.so:_ZN4qucs3eqn8evaluate9equal_c_cEPNS0_8constantE
libqucs.so:_ZN4qucs3eqn8evaluate9equal_c_dEPNS0_8constantE
libqucs.so:_ZN4qucs3eqn8evaluate9equal_c_vEPNS0_8constantE
libqucs.so:_ZN4qucs3eqn8evaluate9equal_d_cEPNS0_8constantE
libqucs.so:_ZN4qucs3eqn8evaluate9equal_d_dEPNS0_8constantE
libqucs.so:_ZN4qucs3eqn8evaluate9equal_d_vEPNS0_8constantE
libqucs.so:_ZN4qucs3eqn8evaluate9equal_v_cEPNS0_8constantE
libqucs.so:_ZN4qucs3eqn8evaluate9equal_v_dEPNS0_8constantE
libqucs.so:_ZN4qucs3eqn8evaluate9equal_v_vEPNS0_8constantE
libqucs.so:_ZN4qucs3eqn8evaluate9erfcinv_cEPNS0_8constantE
libqucs.so:_ZN4qucs3eqn8evaluate9erfcinv_dEPNS0_8constantE
libqucs.so:_ZN4qucs3eqn8evaluate9erfcinv_vEPNS0_8constantE
libqucs.so:_ZN4qucs3eqn8evaluate9index_m_2EPNS0_8constantE
libqucs.so:_ZN4qucs3eqn8evaluate9index_s_1EPNS0_8constantE
libqucs.so:_ZN4qucs3eqn8evaluate9index_v_1EPNS0_8constantE
libqucs.so:_ZN4qucs3eqn8evaluate9index_v_2EPNS0_8constantE
libqucs.so:_ZN4qucs3eqn8evaluate9inverse_mEPNS0_8constantE
libqucs.so:_ZN4qucs3eqn8evaluate9length_mvEPNS0_8constantE
libqucs.so:_ZN4qucs3eqn8evaluate9minus_c_cEPNS0_8constantE
libqucs.so:_ZN4qucs3eqn8evaluate9minus_c_dEPNS0_8constantE
libqucs.so:_ZN4qucs3eqn8evaluate9minus_c_mEPNS0_8constantE
libqucs.so:_ZN4qucs3eqn8evaluate9minus_c_vEPNS0_8constantE
libqucs.so:_ZN4qucs3eqn8evaluate9minus_d_cEPNS0_8constantE
libqucs.so:_ZN4qucs3eqn8evaluate9minus_d_dEPNS0_8constantE
libqucs.so:_ZN4qucs3eqn8evaluate9minus_d_mEPNS0_8constantE
libqucs.so:_ZN4qucs3eqn8evaluate9minus_d_vEPNS0_8constantE
libqucs.so:_ZN4qucs3eqn8evaluate9minus_m_cEPNS0_8constantE
libqucs.so:_ZN4qucs3eqn8evaluate9minus_m_dEPNS0_8constantE
libqucs.so:_ZN4qucs3eqn8evaluate9minus_m_mEPNS0_8constantE
libqucs.so:_ZN4qucs3eqn8evaluate9minus_v_cEPNS0_8constantE
libqucs.so:_ZN4qucs3eqn8evaluate9minus_v_dEPNS0_8constantE
libqucs.so:_ZN4qucs3eqn8evaluate9minus_v_vEPNS0_8constantE
libqucs.so:_ZN4qucs3eqn8evaluate9over_mv_cEPNS0_8constantE
libqucs.so:_ZN4qucs3eqn8evaluate9over_mv_dEPNS0_8constantE
libqucs.so:_ZN4qucs3eqn8evaluate9over_mv_vEPNS0_8constantE
libqucs.so:_ZN4qucs3eqn8evaluate9plot_vs_vEPNS0_8constantE
libqucs.so:_ZN4qucs3eqn8evaluate9plus_c_mvEPNS0_8constantE
libqucs.so:_ZN4qucs3eqn8evaluate9plus_d_mvEPNS0_8constantE
libqucs.so:_ZN4qucs3eqn8evaluate9plus_m_mvEPNS0_8constantE
libqucs.so:_ZN4qucs3eqn8evaluate9plus_mv_cEPNS0_8constantE
libqucs.so:_ZN4qucs3eqn8evaluate9plus_mv_dEPNS0_8constantE
libqucs.so:_ZN4qucs3eqn8evaluate9plus_mv_mEPNS0_8constantE
libqucs.so:_ZN4qucs3eqn8evaluate9plus_mv_vEPNS0_8constantE
libqucs.so:_ZN4qucs3eqn8evaluate9plus_v_mvEPNS0_8constantE
libqucs.so:_ZN4qucs3eqn8evaluate9polar_c_cEPNS0_8constantE
libqucs.so:_ZN4qucs3eqn8evaluate9polar_c_dEPNS0_8constantE
libqucs.so:_ZN4qucs3eqn8evaluate9polar_c_vEPNS0_8constantE
libqucs.so:_ZN4qucs3eqn8evaluate9polar_d_cEPNS0_8constantE
libqucs.so:_ZN4qucs3eqn8evaluate9polar_d_dEPNS0_8constantE
libqucs.so:_ZN4qucs3eqn8evaluate9polar_d_vEPNS0_8constantE
libqucs.so:_ZN4qucs3eqn8evaluate9polar_v_cEPNS0_8constantE
libqucs.so:_ZN4qucs3eqn8evaluate9polar_v_dEPNS0_8constantE
libqucs.so:_ZN4qucs3eqn8evaluate9polar_v_vEPNS0_8constantE
libqucs.so:_ZN4qucs3eqn8evaluate9power_c_cEPNS0_8constantE
libqucs.so:_ZN4qucs3eqn8evaluate9power_c_dEPNS0_8constantE
libqucs.so:_ZN4qucs3eqn8evaluate9power_c_vEPNS0_8constantE
libqucs.so:_ZN4qucs3eqn8evaluate9power_d_cEPNS0_8constantE
libqucs.so:_ZN4qucs3eqn8evaluate9power_d_dEPNS0_8constantE
libqucs.so:_ZN4qucs3eqn8evaluate9power_d_vEPNS0_8constantE
libqucs.so:_ZN4qucs3eqn8evaluate9power_m_cEPNS0_8constantE
libqucs.so:_ZN4qucs3eqn8evaluate9power_m_dEPNS0_8constantE
libqucs.so:_ZN4qucs3eqn8evaluate9power_v_cEPNS0_8constantE
libqucs.so:_ZN4qucs3eqn8evaluate9power_v_dEPNS0_8constantE
libqucs.so:_ZN4qucs3eqn8evaluate9power_v_vEPNS0_8constantE
libqucs.so:_ZN4qucs3eqn8evaluate9rad2deg_cEPNS0_8constantE
libqucs.so:_ZN4qucs3eqn8evaluate9rad2deg_dEPNS0_8constantE
libqucs.so:_ZN4qucs3eqn8evaluate9rad2deg_vEPNS0_8constantE
libqucs.so:_ZN4qucs3eqn8evaluate9range_c_cEPNS0_8constantE
libqucs.so:_ZN4qucs3eqn8evaluate9range_c_dEPNS0_8constantE
libqucs.so:_ZN4qucs3eqn8evaluate9range_d_cEPNS0_8constantE
libqucs.so:_ZN4qucs3eqn8evaluate9range_d_dEPNS0_8constantE
libqucs.so:_ZN4qucs3eqn8evaluate9rollet_mvEPNS0_8constantE
libqucs.so:_ZN4qucs3eqn8evaluate9stos_mv_cEPNS0_8constantE
libqucs.so:_ZN4qucs3eqn8evaluate9stos_mv_dEPNS0_8constantE
libqucs.so:_ZN4qucs3eqn8evaluate9stos_mv_vEPNS0_8constantE
libqucs.so:_ZN4qucs3eqn8evaluate9stoy_mv_cEPNS0_8constantE
libqucs.so:_ZN4qucs3eqn8evaluate9stoy_mv_dEPNS0_8constantE
libqucs.so:_ZN4qucs3eqn8evaluate9stoy_mv_vEPNS0_8constantE
libqucs.so:_ZN4qucs3eqn8evaluate9stoz_mv_cEPNS0_8constantE
libqucs.so:_ZN4qucs3eqn8evaluate9stoz_mv_dEPNS0_8constantE
libqucs.so:_ZN4qucs3eqn8evaluate9stoz_mv_vEPNS0_8constantE
libqucs.so:_ZN4qucs3eqn8evaluate9times_c_cEPNS0_8constantE
libqucs.so:_ZN4qucs3eqn8evaluate9times_c_dEPNS0_8constantE
libqucs.so:_ZN4qucs3eqn8evaluate9times_c_mEPNS0_8constantE
libqucs.so:_ZN4qucs3eqn8evaluate9times_c_vEPNS0_8constantE
libqucs.so:_ZN4qucs3eqn8evaluate9times_d_cEPNS0_8constantE
libqucs.so:_ZN4qucs3eqn8evaluate9times_d_dEPNS0_8constantE
libqucs.so:_ZN4qucs3eqn8evaluate9times_d_mEPNS0_8constantE
libqucs.so:_ZN4qucs3eqn8evaluate9times_d_vEPNS0_8constantE
libqucs.so:_ZN4qucs3eqn8evaluate9times_m_cEPNS0_8constantE
libqucs.so:_ZN4qucs3eqn8evaluate9times_m_dEPNS0_8constantE
libqucs.so:_ZN4qucs3eqn8evaluate9times_m_mEPNS0_8constantE
libqucs.so:_ZN4qucs3eqn8evaluate9times_v_cEPNS0_8constantE
libqucs.so:_ZN4qucs3eqn8evaluate9times_v_dEPNS0_8constantE
libqucs.so:_ZN4qucs3eqn8evaluate9times_v_vEPNS0_8constantE
libqucs.so:_ZN4qucs3eqn8evaluate9twoport_mEPNS0_8constantE
libqucs.so:_ZN4qucs3eqn8evaluate9ytos_mv_cEPNS0_8constantE
libqucs.so:_ZN4qucs3eqn8evaluate9ytos_mv_dEPNS0_8constantE
libqucs.so:_ZN4qucs3eqn8evaluate9ytos_mv_vEPNS0_8constantE
libqucs.so:_ZN4qucs3eqn8evaluate9ztos_mv_cEPNS0_8constantE
libqucs.so:_ZN4qucs3eqn8evaluate9ztos_mv_dEPNS0_8constantE
libqucs.so:_ZN4qucs3eqn8evaluate9ztos_mv_vEPNS0_8constantE
libqucs.so:_ZN4qucs3eqn9reference12findVariableEv
libqucs.so:_ZN4qucs3eqn9reference13differentiateEPc
libqucs.so:_ZN4qucs3eqn9reference15addDependenciesEPNS_7strlistE
libqucs.so:_ZN4qucs3eqn9reference5printEv
libqucs.so:_ZN4qucs3eqn9reference7replaceEPcS2_
libqucs.so:_ZN4qucs3eqn9reference8evalTypeEv
libqucs.so:_ZN4qucs3eqn9reference8evaluateEv
libqucs.so:_ZN4qucs3eqn9reference8recreateEv
libqucs.so:_ZN4qucs3eqn9reference8toStringEv
libqucs.so:_ZN4qucs3eqn9referenceC1ERKS1_
libqucs.so:_ZN4qucs3eqn9referenceC1Ev
libqucs.so:_ZN4qucs3eqn9referenceC2ERKS1_
libqucs.so:_ZN4qucs3eqn9referenceC2Ev
libqucs.so:_ZN4qucs3eqn9referenceD0Ev
libqucs.so:_ZN4qucs3eqn9referenceD1Ev
libqucs.so:_ZN4qucs3eqn9referenceD2Ev
libqucs.so:_ZN4qucs3erfENS_6vectorE
libqucs.so:_ZN4qucs3erfESt7complexIdE
libqucs.so:_ZN4qucs3erfEd
libqucs.so:_ZN4qucs3expENS_6vectorE
libqucs.so:_ZN4qucs3expESt7complexIdE
libqucs.so:_ZN4qucs3expEd
libqucs.so:_ZN4qucs3eyeEi
libqucs.so:_ZN4qucs3eyeEii
libqucs.so:_ZN4qucs3fixENS_6vectorE
libqucs.so:_ZN4qucs3fixESt7complexIdE
libqucs.so:_ZN4qucs3fixEd
libqucs.so:_ZN4qucs3logENS_6vectorE
libqucs.so:_ZN4qucs3logESt7complexIdE
libqucs.so:_ZN4qucs3logEd
libqucs.so:_ZN4qucs3net10addNodesetEPNS_7nodesetE
libqucs.so:_ZN4qucs3net10countNodesEv
libqucs.so:_ZN4qucs3net10countPortsEv
libqucs.so:_ZN4qucs3net10delNodesetEv
libqucs.so:_ZN4qucs3net11isNonLinearEv
libqucs.so:_ZN4qucs3net11runAnalysisERi
libqucs.so:_ZN4qucs3net12findAnalysisEi
libqucs.so:_ZN4qucs3net12insertedNodeEPNS_4nodeE
libqucs.so:_ZN4qucs3net13findLastOrderEPNS_8analysisE
libqucs.so:_ZN4qucs3net13insertCircuitEPNS_7circuitE
libqucs.so:_ZN4qucs3net13orderAnalysisEv
libqucs.so:_ZN4qucs3net13removeCircuitEPNS_7circuitEi
libqucs.so:_ZN4qucs3net14insertAnalysisEPNS_8analysisE
libqucs.so:_ZN4qucs3net14reducedCircuitEPNS_7circuitE
libqucs.so:_ZN4qucs3net14removeAnalysisEPNS_8analysisE
libqucs.so:_ZN4qucs3net15containsCircuitEPNS_7circuitE
libqucs.so:_ZN4qucs3net15findSecondOrderEv
libqucs.so:_ZN4qucs3net15insertedCircuitEPNS_7circuitE
libqucs.so:_ZN4qucs3net15setActionNetAllEPS0_
libqucs.so:_ZN4qucs3net16containsAnalysisEPNS_8analysisEi
libqucs.so:_ZN4qucs3net16getChildAnalysisEPNS_8analysisE
libqucs.so:_ZN4qucs3net17checkCircuitChainEv
libqucs.so:_ZN4qucs3net17findConnectedNodeEPNS_4nodeE
libqucs.so:_ZN4qucs3net17sortChildAnalysesEPNS_8analysisE
libqucs.so:_ZN4qucs3net18getDroppedCircuitsEPNS_8nodelistE
libqucs.so:_ZN4qucs3net20deleteUnusedCircuitsEPNS_8nodelistE
libqucs.so:_ZN4qucs3net21findLastOrderChildrenB5cxx11EPNS_8analysisE
libqucs.so:_ZN4qucs3net24findConnectedCircuitNodeEPNS_4nodeE
libqucs.so:_ZN4qucs3net4listEv
libqucs.so:_ZN4qucs3netC1ERKNSt7__cxx1112basic_stringIcSt11char_traitsIcESaIcEEE
libqucs.so:_ZN4qucs3netC1ERS0_
libqucs.so:_ZN4qucs3netC1Ev
libqucs.so:_ZN4qucs3netC2ERKNSt7__cxx1112basic_stringIcSt11char_traitsIcESaIcEEE
libqucs.so:_ZN4qucs3netC2ERS0_
libqucs.so:_ZN4qucs3netC2Ev
libqucs.so:_ZN4qucs3netD1Ev
libqucs.so:_ZN4qucs3netD2Ev
libqucs.so:_ZN4qucs3powENS_6matrixEi
libqucs.so:_ZN4qucs3powENS_6matvecENS_6vectorE
libqucs.so:_ZN4qucs3powENS_6matvecEi
libqucs.so:_ZN4qucs3powENS_6vectorES0_
libqucs.so:_ZN4qucs3powENS_6vectorESt7complexIdE
libqucs.so:_ZN4qucs3powENS_6vectorEd
libqucs.so:_ZN4qucs3powESt7complexIdENS_6vectorE
libqucs.so:_ZN4qucs3powESt7complexIdES1_
libqucs.so:_ZN4qucs3powESt7complexIdEd
libqucs.so:_ZN4qucs3powEdNS_6vectorE
libqucs.so:_ZN4qucs3powEdSt7complexIdE
libqucs.so:_ZN4qucs3powEdd
libqucs.so:_ZN4qucs3sinENS_6vectorE
libqucs.so:_ZN4qucs3sinESt7complexIdE
libqucs.so:_ZN4qucs3sinEd
libqucs.so:_ZN4qucs3sqrENS_6matrixE
libqucs.so:_ZN4qucs3sqrENS_6matvecE
libqucs.so:_ZN4qucs3sqrENS_6vectorE
libqucs.so:_ZN4qucs3sqrESt7complexIdE
libqucs.so:_ZN4qucs3sqrEd
libqucs.so:_ZN4qucs3sqrEj
libqucs.so:_ZN4qucs3sumENS_6vectorE
libqucs.so:_ZN4qucs3tanENS_6vectorE
libqucs.so:_ZN4qucs3tanESt7complexIdE
libqucs.so:_ZN4qucs3tanEd
libqucs.so:_ZN4qucs4acosENS_6vectorE
libqucs.so:_ZN4qucs4acosESt7complexIdE
libqucs.so:_ZN4qucs4acosEd
libqucs.so:_ZN4qucs4acotENS_6vectorE
libqucs.so:_ZN4qucs4acotESt7complexIdE
libqucs.so:_ZN4qucs4asinENS_6vectorE
libqucs.so:_ZN4qucs4asinESt7complexIdE
libqucs.so:_ZN4qucs4asinEd
libqucs.so:_ZN4qucs4atanENS_6vectorE
libqucs.so:_ZN4qucs4atanESt7complexIdE
libqucs.so:_ZN4qucs4atanEd
libqucs.so:_ZN4qucs4atosENS_6matrixESt7complexIdES2_
libqucs.so:_ZN4qucs4ceilENS_6vectorE
libqucs.so:_ZN4qucs4ceilESt7complexIdE
libqucs.so:_ZN4qucs4ceilEd
libqucs.so:_ZN4qucs4conjENS_6matrixE
libqucs.so:_ZN4qucs4conjENS_6matvecE
libqucs.so:_ZN4qucs4conjENS_6vectorE
libqucs.so:_ZN4qucs4conjEd
libqucs.so:_ZN4qucs4coshENS_6vectorE
libqucs.so:_ZN4qucs4coshESt7complexIdE
libqucs.so:_ZN4qucs4coshEd
libqucs.so:_ZN4qucs4cothENS_6vectorE
libqucs.so:_ZN4qucs4cothESt7complexIdE
libqucs.so:_ZN4qucs4cothEd
libqucs.so:_ZN4qucs4diffENS_6vectorES0_i
libqucs.so:_ZN4qucs4erfcENS_6vectorE
libqucs.so:_ZN4qucs4erfcESt7complexIdE
libqucs.so:_ZN4qucs4fmodESt7complexIdES1_
libqucs.so:_ZN4qucs4fmodEd
libqucs.so:_ZN4qucs4gtosENS_6matrixESt7complexIdES2_
libqucs.so:_ZN4qucs4htosENS_6matrixESt7complexIdES2_
libqucs.so:_ZN4qucs4imagENS_6matrixE
libqucs.so:_ZN4qucs4imagENS_6matvecE
libqucs.so:_ZN4qucs4imagENS_6vectorE
libqucs.so:_ZN4qucs4imagEd
libqucs.so:_ZN4qucs4log2ENS_6vectorE
libqucs.so:_ZN4qucs4log2ESt7complexIdE
libqucs.so:_ZN4qucs4normENS_6vectorE
libqucs.so:_ZN4qucs4normESt7complexIdE
libqucs.so:_ZN4qucs4normEd
libqucs.so:_ZN4qucs4prodENS_6vectorE
libqucs.so:_ZN4qucs4realENS_6matrixE
libqucs.so:_ZN4qucs4realENS_6matvecE
libqucs.so:_ZN4qucs4realENS_6vectorE
libqucs.so:_ZN4qucs4realEd
libqucs.so:_ZN4qucs4rtoyENS_6vectorESt7complexIdE
libqucs.so:_ZN4qucs4rtoyESt7complexIdES1_
libqucs.so:_ZN4qucs4rtozENS_6vectorESt7complexIdE
libqucs.so:_ZN4qucs4rtozESt7complexIdES1_
libqucs.so:_ZN4qucs4sechENS_6vectorE
libqucs.so:_ZN4qucs4sechESt7complexIdE
libqucs.so:_ZN4qucs4sechEd
libqucs.so:_ZN4qucs4signENS_6vectorE
libqucs.so:_ZN4qucs4signESt7complexIdE
libqucs.so:_ZN4qucs4signEd
libqucs.so:_ZN4qucs4sincENS_6vectorE
libqucs.so:_ZN4qucs4sincESt7complexIdE
libqucs.so:_ZN4qucs4sincEd
libqucs.so:_ZN4qucs4sinhENS_6vectorE
libqucs.so:_ZN4qucs4sinhESt7complexIdE
libqucs.so:_ZN4qucs4sinhEd
libqucs.so:_ZN4qucs4sqrtENS_6vectorE
libqucs.so:_ZN4qucs4sqrtESt7complexIdE
libqucs.so:_ZN4qucs4sqrtEd
libqucs.so:_ZN4qucs4stepENS_6vectorE
libqucs.so:_ZN4qucs4stepESt7complexIdE
libqucs.so:_ZN4qucs4stepEd
libqucs.so:_ZN4qucs4stoaENS_6matrixESt7complexIdES2_
libqucs.so:_ZN4qucs4stogENS_6matrixESt7complexIdES2_
libqucs.so:_ZN4qucs4stohENS_6matrixESt7complexIdES2_
libqucs.so:_ZN4qucs4stosENS_6matrixENS_6vectorES1_
libqucs.so:_ZN4qucs4stosENS_6matrixENS_6vectorESt7complexIdE
libqucs.so:_ZN4qucs4stosENS_6matrixESt7complexIdENS_6vectorE
libqucs.so:_ZN4qucs4stosENS_6matrixESt7complexIdES2_
libqucs.so:_ZN4qucs4stosENS_6matrixEdd
libqucs.so:_ZN4qucs4stosENS_6matvecENS_6vectorES1_
libqucs.so:_ZN4qucs4stosENS_6matvecENS_6vectorESt7complexIdE
libqucs.so:_ZN4qucs4stosENS_6matvecESt7complexIdENS_6vectorE
libqucs.so:_ZN4qucs4stosENS_6matvecESt7complexIdES2_
libqucs.so:_ZN4qucs4stosENS_6matvecEdd
libqucs.so:_ZN4qucs4stoyENS_6matrixENS_6vectorE
libqucs.so:_ZN4qucs4stoyENS_6matrixESt7complexIdE
libqucs.so:_ZN4qucs4stoyENS_6matvecENS_6vectorE
libqucs.so:_ZN4qucs4stoyENS_6matvecESt7complexIdE
libqucs.so:_ZN4qucs4stozENS_6matrixENS_6vectorE
libqucs.so:_ZN4qucs4stozENS_6matrixESt7complexIdE
libqucs.so:_ZN4qucs4stozENS_6matvecENS_6vectorE
libqucs.so:_ZN4qucs4stozENS_6matvecESt7complexIdE
libqucs.so:_ZN4qucs4tanhENS_6vectorE
libqucs.so:_ZN4qucs4tanhESt7complexIdE
libqucs.so:_ZN4qucs4tanhEd
libqucs.so:_ZN4qucs4ytorENS_6vectorESt7complexIdE
libqucs.so:_ZN4qucs4ytorESt7complexIdES1_
libqucs.so:_ZN4qucs4ytosENS_6matrixENS_6vectorE
libqucs.so:_ZN4qucs4ytosENS_6matrixESt7complexIdE
libqucs.so:_ZN4qucs4ytosENS_6matvecENS_6vectorE
libqucs.so:_ZN4qucs4ytosENS_6matvecESt7complexIdE
libqucs.so:_ZN4qucs4ytozENS_6matrixE
libqucs.so:_ZN4qucs4ytozENS_6matvecE
libqucs.so:_ZN4qucs4ztorENS_6vectorESt7complexIdE
libqucs.so:_ZN4qucs4ztorESt7complexIdES1_
libqucs.so:_ZN4qucs4ztosENS_6matrixENS_6vectorE
libqucs.so:_ZN4qucs4ztosENS_6matrixESt7complexIdE
libqucs.so:_ZN4qucs4ztosENS_6matvecENS_6vectorE
libqucs.so:_ZN4qucs4ztosENS_6matvecESt7complexIdE
libqucs.so:_ZN4qucs4ztoyENS_6matrixE
libqucs.so:_ZN4qucs4ztoyENS_6matvecE
libqucs.so:_ZN4qucs5acoshENS_6vectorE
libqucs.so:_ZN4qucs5acoshESt7complexIdE
libqucs.so:_ZN4qucs5acoshEd
libqucs.so:_ZN4qucs5acothENS_6vectorE
libqucs.so:_ZN4qucs5acothESt7complexIdE
libqucs.so:_ZN4qucs5asechENS_6vectorE
libqucs.so:_ZN4qucs5asechESt7complexIdE
libqucs.so:_ZN4qucs5asinhENS_6vectorE
libqucs.so:_ZN4qucs5asinhESt7complexIdE
libqucs.so:_ZN4qucs5asinhEd
libqucs.so:_ZN4qucs5atan2ENS_6vectorES0_
libqucs.so:_ZN4qucs5atan2ENS_6vectorEd
libqucs.so:_ZN4qucs5atan2ESt7complexIdES1_
libqucs.so:_ZN4qucs5atan2EdNS_6vectorE
libqucs.so:_ZN4qucs5atan2Edd
libqucs.so:_ZN4qucs5atanhENS_6vectorE
libqucs.so:_ZN4qucs5atanhESt7complexIdE
libqucs.so:_ZN4qucs5atanhEd
libqucs.so:_ZN4qucs5dbm2wENS_6vectorE
libqucs.so:_ZN4qucs5floorENS_6vectorE
libqucs.so:_ZN4qucs5floorESt7complexIdE
libqucs.so:_ZN4qucs5floorEd
libqucs.so:_ZN4qucs5input12createVectorEP7value_t
libqucs.so:_ZN4qucs5input13createCircuitEPc
libqucs.so:_ZN4qucs5input14createAnalysisEPc
libqucs.so:_ZN4qucs5input15createSubstrateEPc
libqucs.so:_ZN4qucs5input23assignDefaultPropertiesEPNS_6objectEP8define_t
libqucs.so:_ZN4qucs5input7factoryEv
libqucs.so:_ZN4qucs5input7netlistEPNS_3netE
libqucs.so:_ZN4qucs5inputC1EPc
libqucs.so:_ZN4qucs5inputC1Ev
libqucs.so:_ZN4qucs5inputC2EPc
libqucs.so:_ZN4qucs5inputC2Ev
libqucs.so:_ZN4qucs5inputD1Ev
libqucs.so:_ZN4qucs5inputD2Ev
libqucs.so:_ZN4qucs5log10ENS_6vectorE
libqucs.so:_ZN4qucs5log10ESt7complexIdE
libqucs.so:_ZN4qucs5log10Ed
libqucs.so:_ZN4qucs5polarENS_6vectorES0_
libqucs.so:_ZN4qucs5polarENS_6vectorESt7complexIdE
libqucs.so:_ZN4qucs5polarESt7complexIdENS_6vectorE
libqucs.so:_ZN4qucs5polarESt7complexIdES1_
libqucs.so:_ZN4qucs5polarEdd
libqucs.so:_ZN4qucs5quadrEd
libqucs.so:_ZN4qucs5range6insideEd
libqucs.so:_ZN4qucs5range7outsideEd
libqucs.so:_ZN4qucs5range8toStringEv
libqucs.so:_ZN4qucs5rangeC1ERKS0_
libqucs.so:_ZN4qucs5rangeC1Ecddc
libqucs.so:_ZN4qucs5rangeC1Ev
libqucs.so:_ZN4qucs5rangeC2ERKS0_
libqucs.so:_ZN4qucs5rangeC2Ecddc
libqucs.so:_ZN4qucs5rangeC2Ev
libqucs.so:_ZN4qucs5rangeD1Ev
libqucs.so:_ZN4qucs5rangeD2Ev
libqucs.so:_ZN4qucs5roundENS_6vectorE
libqucs.so:_ZN4qucs5roundESt7complexIdE
libqucs.so:_ZN4qucs5roundEd
libqucs.so:_ZN4qucs5sweep3getEi
libqucs.so:_ZN4qucs5sweep3setEid
libqucs.so:_ZN4qucs5sweep4nextEv
libqucs.so:_ZN4qucs5sweep4prevEv
libqucs.so:_ZN4qucs5sweep7reverseEv
libqucs.so:_ZN4qucs5sweep7setSizeEi
libqucs.so:_ZN4qucs5sweep8toStringEv
libqucs.so:_ZN4qucs5sweepC1ERKNSt7__cxx1112basic_stringIcSt11char_traitsIcESaIcEEE
libqucs.so:_ZN4qucs5sweepC1ERS0_
libqucs.so:_ZN4qucs5sweepC1Ev
libqucs.so:_ZN4qucs5sweepC2ERKNSt7__cxx1112basic_stringIcSt11char_traitsIcESaIcEEE
libqucs.so:_ZN4qucs5sweepC2ERS0_
libqucs.so:_ZN4qucs5sweepC2Ev
libqucs.so:_ZN4qucs5sweepD1Ev
libqucs.so:_ZN4qucs5sweepD2Ev
libqucs.so:_ZN4qucs5truncESt7complexIdE
libqucs.so:_ZN4qucs5truncEd
libqucs.so:_ZN4qucs5w2dbmENS_6vectorE
libqucs.so:_ZN4qucs6cosechENS_6vectorE
libqucs.so:_ZN4qucs6cosechESt7complexIdE
libqucs.so:_ZN4qucs6cosechEd
libqucs.so:_ZN4qucs6cstocyENS_6matrixES0_
libqucs.so:_ZN4qucs6cstoczENS_6matrixES0_
libqucs.so:_ZN4qucs6cumavgENS_6vectorE
libqucs.so:_ZN4qucs6cumsumENS_6vectorE
libqucs.so:_ZN4qucs6cytocsENS_6matrixES0_
libqucs.so:_ZN4qucs6cytoczENS_6matrixES0_
libqucs.so:_ZN4qucs6cztocsENS_6matrixES0_
libqucs.so:_ZN4qucs6cztocyENS_6matrixES0_
libqucs.so:_ZN4qucs6device10fetVoltageEddd
libqucs.so:_ZN4qucs6device11pnCurrent_TEdddddd
libqucs.so:_ZN4qucs6device12fetVoltageDSEdd
libqucs.so:_ZN4qucs6device13deviceEnabledEPNS_7circuitE
libqucs.so:_ZN4qucs6device13pnCapacitanceEdddd
libqucs.so:_ZN4qucs6device13pnCapacitanceEddddd
libqucs.so:_ZN4qucs6device13pnConductanceEddd
libqucs.so:_ZN4qucs6device13pnJunctionBIPEdddRdS1_
libqucs.so:_ZN4qucs6device13pnJunctionMOSEdddRdS1_
libqucs.so:_ZN4qucs6device13pnPotential_TEdddd
libqucs.so:_ZN4qucs6device13splitResistorEPNS_7circuitES2_PKcS4_i
libqucs.so:_ZN4qucs6device14splitCapacitorEPNS_7circuitES2_PKcPNS_4nodeES6_
libqucs.so:_ZN4qucs6device15disableResistorEPNS_7circuitES2_i
libqucs.so:_ZN4qucs6device15pnCapacitance_FEdddd
libqucs.so:_ZN4qucs6device15pnCapacitance_TEddddd
libqucs.so:_ZN4qucs6device16disableCapacitorEPNS_7circuitES2_
libqucs.so:_ZN4qucs6device16intrinsicDensityEdd
libqucs.so:_ZN4qucs6device17pnCriticalVoltageEdd
libqucs.so:_ZN4qucs6device19fetCapacitanceMeyerEddddddRdS1_S1_
libqucs.so:_ZN4qucs6device4EgapEdd
libqucs.so:_ZN4qucs6device8pnChargeEdddd
libqucs.so:_ZN4qucs6device8pnChargeEddddd
libqucs.so:_ZN4qucs6device9pnCurrentEddd
libqucs.so:_ZN4qucs6device9pnVoltageEdddd
libqucs.so:_ZN4qucs6erfinvENS_6vectorE
libqucs.so:_ZN4qucs6erfinvESt7complexIdE
libqucs.so:_ZN4qucs6estackE
libqucs.so:_ZN4qucs6limexpENS_6vectorE
libqucs.so:_ZN4qucs6limexpESt7complexIdE
libqucs.so:_ZN4qucs6limexpEd
libqucs.so:_ZN4qucs6matrix12exchangeColsEii
libqucs.so:_ZN4qucs6matrix12exchangeRowsEii
libqucs.so:_ZN4qucs6matrix3getEii
libqucs.so:_ZN4qucs6matrix3setEiiSt7complexIdE
libqucs.so:_ZN4qucs6matrix5printEv
libqucs.so:_ZN4qucs6matrixC1ERKS0_
libqucs.so:_ZN4qucs6matrixC1Ei
libqucs.so:_ZN4qucs6matrixC1Eii
libqucs.so:_ZN4qucs6matrixC1Ev
libqucs.so:_ZN4qucs6matrixC2ERKS0_
libqucs.so:_ZN4qucs6matrixC2Ei
libqucs.so:_ZN4qucs6matrixC2Eii
libqucs.so:_ZN4qucs6matrixC2Ev
libqucs.so:_ZN4qucs6matrixD1Ev
libqucs.so:_ZN4qucs6matrixD2Ev
libqucs.so:_ZN4qucs6matrixaSERKS0_
libqucs.so:_ZN4qucs6matrixmIES0_
libqucs.so:_ZN4qucs6matrixngEv
libqucs.so:_ZN4qucs6matrixpLES0_
libqucs.so:_ZN4qucs6matvec14isMatrixVectorEPKcRiS3_
libqucs.so:_ZN4qucs6matvec15getMatrixVectorEPNS_6vectorEPc
libqucs.so:_ZN4qucs6matvec18createMatrixStringEPKcii
libqucs.so:_ZN4qucs6matvec18createMatrixStringEcii
libqucs.so:_ZN4qucs6matvec19getMatrixVectorSizeEPNS_6vectorEPcRiS4_S4_
libqucs.so:_ZN4qucs6matvec3getEi
libqucs.so:_ZN4qucs6matvec3getEii
libqucs.so:_ZN4qucs6matvec3setENS_6matrixEi
libqucs.so:_ZN4qucs6matvec3setENS_6vectorEii
libqucs.so:_ZN4qucs6matvec7getNameEv
libqucs.so:_ZN4qucs6matvec7setNameEPKc
libqucs.so:_ZN4qucs6matvecC1ERKS0_
libqucs.so:_ZN4qucs6matvecC1Eiii
libqucs.so:_ZN4qucs6matvecC1Ev
libqucs.so:_ZN4qucs6matvecC2ERKS0_
libqucs.so:_ZN4qucs6matvecC2Eiii
libqucs.so:_ZN4qucs6matvecC2Ev
libqucs.so:_ZN4qucs6matvecD1Ev
libqucs.so:_ZN4qucs6matvecD2Ev
libqucs.so:_ZN4qucs6matvecmIES0_
libqucs.so:_ZN4qucs6matvecngEv
libqucs.so:_ZN4qucs6matvecpLES0_
libqucs.so:_ZN4qucs6module14registerModuleEP8define_t
libqucs.so:_ZN4qucs6module14registerModuleEPFP8define_tvE
libqucs.so:_ZN4qucs6module14registerModuleEPFP8define_tvEPFPNS_7circuitEvE
libqucs.so:_ZN4qucs6module14registerModuleEPFP8define_tvEPFPNS_8analysisEvE
libqucs.so:_ZN4qucs6module14registerModuleEPKcPS0_
libqucs.so:_ZN4qucs6module15registerModulesEv
libqucs.so:_ZN4qucs6module16closeDynamicLibsEv
libqucs.so:_ZN4qucs6module17unregisterModulesEv
libqucs.so:_ZN4qucs6module22registerDynamicModulesEPcNSt7__cxx114listINS2_12basic_stringIcSt11char_traitsIcESaIcEEESaIS8_EEE
libqucs.so:_ZN4qucs6module5printEv
libqucs.so:_ZN4qucs6module7modulesE
libqucs.so:_ZN4qucs6module9getModuleEPc
libqucs.so:_ZN4qucs6moduleC1Ev
libqucs.so:_ZN4qucs6moduleC2Ev
libqucs.so:_ZN4qucs6moduleD1Ev
libqucs.so:_ZN4qucs6moduleD2Ev
libqucs.so:_ZN4qucs6object11addPropertyERKNSt7__cxx1112basic_stringIcSt11char_traitsIcESaIcEEEPKcb
libqucs.so:_ZN4qucs6object11addPropertyERKNSt7__cxx1112basic_stringIcSt11char_traitsIcESaIcEEEPNS_8variableEb
libqucs.so:_ZN4qucs6object11addPropertyERKNSt7__cxx1112basic_stringIcSt11char_traitsIcESaIcEEEdb
libqucs.so:_ZN4qucs6object11setPropertyERKNSt7__cxx1112basic_stringIcSt11char_traitsIcESaIcEEEPKc
libqucs.so:_ZN4qucs6object11setPropertyERKNSt7__cxx1112basic_stringIcSt11char_traitsIcESaIcEEEd
libqucs.so:_ZN4qucs6object17setScaledPropertyERKNSt7__cxx1112basic_stringIcSt11char_traitsIcESaIcEEEd
libqucs.so:_ZN4qucs6rolletENS_6matrixE
libqucs.so:_ZN4qucs6rolletENS_6matvecE
libqucs.so:_ZN4qucs6runavgENS_6vectorEi
libqucs.so:_ZN4qucs6runavgESt7complexIdEi
libqucs.so:_ZN4qucs6signumENS_6vectorE
libqucs.so:_ZN4qucs6signumESt7complexIdE
libqucs.so:_ZN4qucs6signumEd
libqucs.so:_ZN4qucs6spline11upper_boundEPdS1_d
libqucs.so:_ZN4qucs6spline7reallocEi
libqucs.so:_ZN4qucs6spline7vectorsENS_6vectorES1_
libqucs.so:_ZN4qucs6spline7vectorsENS_7tvectorIdEES2_
libqucs.so:_ZN4qucs6spline7vectorsEPdS1_i
libqucs.so:_ZN4qucs6spline7vectorsESt6vectorIdSaIdEES3_
libqucs.so:_ZN4qucs6spline8evaluateEd
libqucs.so:_ZN4qucs6spline9constructEv
libqucs.so:_ZN4qucs6splineC1ENS_6vectorES1_
libqucs.so:_ZN4qucs6splineC1ENS_7tvectorIdEES2_
libqucs.so:_ZN4qucs6splineC1ESt6vectorIdSaIdEES3_
libqucs.so:_ZN4qucs6splineC1Ei
libqucs.so:_ZN4qucs6splineC1Ev
libqucs.so:_ZN4qucs6splineC2ENS_6vectorES1_
libqucs.so:_ZN4qucs6splineC2ENS_7tvectorIdEES2_
libqucs.so:_ZN4qucs6splineC2ESt6vectorIdSaIdEES3_
libqucs.so:_ZN4qucs6splineC2Ei
libqucs.so:_ZN4qucs6splineC2Ev
libqucs.so:_ZN4qucs6splineD1Ev
libqucs.so:_ZN4qucs6splineD2Ev
libqucs.so:_ZN4qucs6unwrapENS_6vectorEdd
libqucs.so:_ZN4qucs6vector10checkSizesES0_S0_
libqucs.so:_ZN4qucs6vector15getDependenciesEv
libqucs.so:_ZN4qucs6vector15setDependenciesEPNS_7strlistE
libqucs.so:_ZN4qucs6vector3addEPS0_
libqucs.so:_ZN4qucs6vector3addESt7complexIdE
libqucs.so:_ZN4qucs6vector3getEi
libqucs.so:_ZN4qucs6vector3rmsEv
libqucs.so:_ZN4qucs6vector3setESt7complexIdEi
libqucs.so:_ZN4qucs6vector3setEdi
libqucs.so:_ZN4qucs6vector4sortEb
libqucs.so:_ZN4qucs6vector5printEv
libqucs.so:_ZN4qucs6vector6stddevEv
libqucs.so:_ZN4qucs6vector7maximumEv
libqucs.so:_ZN4qucs6vector7minimumEv
libqucs.so:_ZN4qucs6vector7reverseEv
libqucs.so:_ZN4qucs6vector8containsESt7complexIdEd
libqucs.so:_ZN4qucs6vector8varianceEv
libqucs.so:_ZN4qucs6vector9getOriginEv
libqucs.so:_ZN4qucs6vector9setOriginEPKc
libqucs.so:_ZN4qucs6vectorC1ERKNSt7__cxx1112basic_stringIcSt11char_traitsIcESaIcEEE
libqucs.so:_ZN4qucs6vectorC1ERKNSt7__cxx1112basic_stringIcSt11char_traitsIcESaIcEEEi
libqucs.so:_ZN4qucs6vectorC1ERKS0_
libqucs.so:_ZN4qucs6vectorC1Ei
libqucs.so:_ZN4qucs6vectorC1EiSt7complexIdE
libqucs.so:_ZN4qucs6vectorC1Ev
libqucs.so:_ZN4qucs6vectorC2ERKNSt7__cxx1112basic_stringIcSt11char_traitsIcESaIcEEE
libqucs.so:_ZN4qucs6vectorC2ERKNSt7__cxx1112basic_stringIcSt11char_traitsIcESaIcEEEi
libqucs.so:_ZN4qucs6vectorC2ERKS0_
libqucs.so:_ZN4qucs6vectorC2Ei
libqucs.so:_ZN4qucs6vectorC2EiSt7complexIdE
libqucs.so:_ZN4qucs6vectorC2Ev
libqucs.so:_ZN4qucs6vectorD1Ev
libqucs.so:_ZN4qucs6vectorD2Ev
libqucs.so:_ZN4qucs6vectoraSERKS0_
libqucs.so:_ZN4qucs6vectoraSESt7complexIdE
libqucs.so:_ZN4qucs6vectoraSEd
libqucs.so:_ZN4qucs6vectordVES0_
libqucs.so:_ZN4qucs6vectordVESt7complexIdE
libqucs.so:_ZN4qucs6vectordVEd
libqucs.so:_ZN4qucs6vectormIES0_
libqucs.so:_ZN4qucs6vectormIESt7complexIdE
libqucs.so:_ZN4qucs6vectormIEd
libqucs.so:_ZN4qucs6vectormLES0_
libqucs.so:_ZN4qucs6vectormLESt7complexIdE
libqucs.so:_ZN4qucs6vectormLEd
libqucs.so:_ZN4qucs6vectorngEv
libqucs.so:_ZN4qucs6vectorpLES0_
libqucs.so:_ZN4qucs6vectorpLESt7complexIdE
libqucs.so:_ZN4qucs6vectorpLEd
libqucs.so:_ZN4qucs6xhypotENS_6vectorES0_
libqucs.so:_ZN4qucs6xhypotENS_6vectorESt7complexIdE
libqucs.so:_ZN4qucs6xhypotENS_6vectorEd
libqucs.so:_ZN4qucs6xhypotESt7complexIdENS_6vectorE
libqucs.so:_ZN4qucs6xhypotESt7complexIdES1_
libqucs.so:_ZN4qucs6xhypotESt7complexIdEd
libqucs.so:_ZN4qucs6xhypotEdNS_6vectorE
libqucs.so:_ZN4qucs6xhypotEdSt7complexIdE
libqucs.so:_ZN4qucs6xhypotEdd
libqucs.so:_ZN4qucs7adjointENS_6matrixE
libqucs.so:_ZN4qucs7adjointENS_6matvecE
libqucs.so:_ZN4qucs7circuit10getMatrixNEv
libqucs.so:_ZN4qucs7circuit10getMatrixSEv
libqucs.so:_ZN4qucs7circuit10getMatrixYEv
libqucs.so:_ZN4qucs7circuit10setMatrixNENS_6matrixE
libqucs.so:_ZN4qucs7circuit10setMatrixSENS_6matrixE
libqucs.so:_ZN4qucs7circuit10setMatrixYENS_6matrixE
libqucs.so:_ZN4qucs7circuit11initHistoryEd
libqucs.so:_ZN4qucs7circuit12allocMatrixNEi
libqucs.so:_ZN4qucs7circuit12allocMatrixSEv
libqucs.so:_ZN4qucs7circuit12applyHistoryEPNS_7historyE
libqucs.so:_ZN4qucs7circuit12freeMatrixHBEv
libqucs.so:_ZN4qucs7circuit12getSubstrateEv
libqucs.so:_ZN4qucs7circuit12setSubstrateEPNS_9substrateE
libqucs.so:_ZN4qucs7circuit13allocMatrixHBEv
libqucs.so:_ZN4qucs7circuit13appendHistoryEid
libqucs.so:_ZN4qucs7circuit13deleteHistoryEv
libqucs.so:_ZN4qucs7circuit13freeMatrixMNAEv
libqucs.so:_ZN4qucs7circuit13getHistoryAgeEv
libqucs.so:_ZN4qucs7circuit13setHistoryAgeEd
libqucs.so:_ZN4qucs7circuit13setSubcircuitERKNSt7__cxx1112basic_stringIcSt11char_traitsIcESaIcEEE
libqucs.so:_ZN4qucs7circuit13voltageSourceEiiid
libqucs.so:_ZN4qucs7circuit14allocMatrixMNAEv
libqucs.so:_ZN4qucs7circuit14createInternalERKNSt7__cxx1112basic_stringIcSt11char_traitsIcESaIcEEES8_
libqucs.so:_ZN4qucs7circuit14getHistorySizeEv
libqucs.so:_ZN4qucs7circuit15getNoiseSourcesEv
libqucs.so:_ZN4qucs7circuit15setInternalNodeEiRKNSt7__cxx1112basic_stringIcSt11char_traitsIcESaIcEEE
libqucs.so:_ZN4qucs7circuit15setNoiseSourcesEi
libqucs.so:_ZN4qucs7circuit15truncateHistoryEd
libqucs.so:_ZN4qucs7circuit17addCharacteristicERKNSt7__cxx1112basic_stringIcSt11char_traitsIcESaIcEEEd
libqucs.so:_ZN4qucs7circuit17addOperatingPointERKNSt7__cxx1112basic_stringIcSt11char_traitsIcESaIcEEEd
libqucs.so:_ZN4qucs7circuit17getCharacteristicERKNSt7__cxx1112basic_stringIcSt11char_traitsIcESaIcEEE
libqucs.so:_ZN4qucs7circuit17getOperatingPointERKNSt7__cxx1112basic_stringIcSt11char_traitsIcESaIcEEE
libqucs.so:_ZN4qucs7circuit17getVoltageSourcesEv
libqucs.so:_ZN4qucs7circuit17hasCharacteristicERKNSt7__cxx1112basic_stringIcSt11char_traitsIcESaIcEEE
libqucs.so:_ZN4qucs7circuit17hasOperatingPointERKNSt7__cxx1112basic_stringIcSt11char_traitsIcESaIcEEE
libqucs.so:_ZN4qucs7circuit17setCharacteristicERKNSt7__cxx1112basic_stringIcSt11char_traitsIcESaIcEEEd
libqucs.so:_ZN4qucs7circuit17setOperatingPointERKNSt7__cxx1112basic_stringIcSt11char_traitsIcESaIcEEEd
libqucs.so:_ZN4qucs7circuit17setVoltageSourcesEi
libqucs.so:_ZN4qucs7circuit20getHistoryTFromIndexEi
libqucs.so:_ZN4qucs7circuit20transientCapacitanceEiiddd
libqucs.so:_ZN4qucs7circuit20transientCapacitanceEiiiddd
libqucs.so:_ZN4qucs7circuit21transientCapacitanceCEiidd
libqucs.so:_ZN4qucs7circuit21transientCapacitanceCEiiiidd
libqucs.so:_ZN4qucs7circuit21transientCapacitanceQEiid
libqucs.so:_ZN4qucs7circuit21transientCapacitanceQEiiid
libqucs.so:_ZN4qucs7circuit23transientCapacitanceC2QEiiidd
libqucs.so:_ZN4qucs7circuit23transientCapacitanceC2VEiiidd
libqucs.so:_ZN4qucs7circuit2z0E
libqucs.so:_ZN4qucs7circuit4addIEiSt7complexIdE
libqucs.so:_ZN4qucs7circuit4addIEid
libqucs.so:_ZN4qucs7circuit4addYEiiSt7complexIdE
libqucs.so:_ZN4qucs7circuit4addYEiid
libqucs.so:_ZN4qucs7circuit4getBEii
libqucs.so:_ZN4qucs7circuit4getCEii
libqucs.so:_ZN4qucs7circuit4getDEii
libqucs.so:_ZN4qucs7circuit4getEEi
libqucs.so:_ZN4qucs7circuit4getGEii
libqucs.so:_ZN4qucs7circuit4getIEi
libqucs.so:_ZN4qucs7circuit4getJEi
libqucs.so:_ZN4qucs7circuit4getJEid
libqucs.so:_ZN4qucs7circuit4getNEii
libqucs.so:_ZN4qucs7circuit4getQEi
libqucs.so:_ZN4qucs7circuit4getSEii
libqucs.so:_ZN4qucs7circuit4getVEi
libqucs.so:_ZN4qucs7circuit4getVEid
libqucs.so:_ZN4qucs7circuit4getVEii
libqucs.so:_ZN4qucs7circuit4getYEii
libqucs.so:_ZN4qucs7circuit4setBEiiSt7complexIdE
libqucs.so:_ZN4qucs7circuit4setCEiiSt7complexIdE
libqucs.so:_ZN4qucs7circuit4setDEiiSt7complexIdE
libqucs.so:_ZN4qucs7circuit4setEEiSt7complexIdE
libqucs.so:_ZN4qucs7circuit4setGEiid
libqucs.so:_ZN4qucs7circuit4setIEiSt7complexIdE
libqucs.so:_ZN4qucs7circuit4setJEiSt7complexIdE
libqucs.so:_ZN4qucs7circuit4setNEiiSt7complexIdE
libqucs.so:_ZN4qucs7circuit4setQEiSt7complexIdE
libqucs.so:_ZN4qucs7circuit4setSEiiSt7complexIdE
libqucs.so:_ZN4qucs7circuit4setVEiSt7complexIdE
libqucs.so:_ZN4qucs7circuit4setYEiiSt7complexIdE
libqucs.so:_ZN4qucs7circuit5getCVEi
libqucs.so:_ZN4qucs7circuit5getGVEi
libqucs.so:_ZN4qucs7circuit5getQVEii
libqucs.so:_ZN4qucs7circuit5printEv
libqucs.so:_ZN4qucs7circuit5setCVEiSt7complexIdE
libqucs.so:_ZN4qucs7circuit5setGVEiSt7complexIdE
libqucs.so:_ZN4qucs7circuit5setQVEiiSt7complexIdE
libqucs.so:_ZN4qucs7circuit6clearBEv
libqucs.so:_ZN4qucs7circuit6clearCEv
libqucs.so:_ZN4qucs7circuit6clearDEv
libqucs.so:_ZN4qucs7circuit6clearEEv
libqucs.so:_ZN4qucs7circuit6clearIEv
libqucs.so:_ZN4qucs7circuit6clearJEv
libqucs.so:_ZN4qucs7circuit6clearVEv
libqucs.so:_ZN4qucs7circuit6clearYEv
libqucs.so:_ZN4qucs7circuit7getNodeEi
libqucs.so:_ZN4qucs7circuit7setNodeEiRKNSt7__cxx1112basic_stringIcSt11char_traitsIcESaIcEEEi
libqucs.so:_ZN4qucs7circuit7setSizeEi
libqucs.so:_ZN4qucs7circuitC1ERKS0_
libqucs.so:_ZN4qucs7circuitC1Ei
libqucs.so:_ZN4qucs7circuitC1Ev
libqucs.so:_ZN4qucs7circuitC2ERKS0_
libqucs.so:_ZN4qucs7circuitC2Ei
libqucs.so:_ZN4qucs7circuitC2Ev
libqucs.so:_ZN4qucs7circuitD0Ev
libqucs.so:_ZN4qucs7circuitD1Ev
libqucs.so:_ZN4qucs7circuitD2Ev
libqucs.so:_ZN4qucs7cumprodENS_6vectorE
libqucs.so:_ZN4qucs7dataset10findOriginEPc
libqucs.so:_ZN4qucs7dataset10isVariableEPNS_6vectorE
libqucs.so:_ZN4qucs7dataset11addVariableEPNS_6vectorE
libqucs.so:_ZN4qucs7dataset11delVariableEPNS_6vectorE
libqucs.so:_ZN4qucs7dataset12addVariablesEPNS_6vectorE
libqucs.so:_ZN4qucs7dataset12findVariableERKNSt7__cxx1112basic_stringIcSt11char_traitsIcESaIcEEE
libqucs.so:_ZN4qucs7dataset12isDependencyEPNS_6vectorE
libqucs.so:_ZN4qucs7dataset13addDependencyEPNS_6vectorE
libqucs.so:_ZN4qucs7dataset13delDependencyEPNS_6vectorE
libqucs.so:_ZN4qucs7dataset13printVariableEPNS_6vectorEP8_IO_FILE
libqucs.so:_ZN4qucs7dataset14appendVariableEPNS_6vectorE
libqucs.so:_ZN4qucs7dataset14countVariablesEv
libqucs.so:_ZN4qucs7dataset14findDependencyEPKc
libqucs.so:_ZN4qucs7dataset15addDependenciesEPNS_6vectorE
libqucs.so:_ZN4qucs7dataset15appendVariablesEPNS_6vectorE
libqucs.so:_ZN4qucs7dataset15load_touchstoneEPKc
libqucs.so:_ZN4qucs7dataset15printDependencyEPNS_6vectorEP8_IO_FILE
libqucs.so:_ZN4qucs7dataset16appendDependencyEPNS_6vectorE
libqucs.so:_ZN4qucs7dataset16assignDependencyEPKcS2_
libqucs.so:_ZN4qucs7dataset17applyDependenciesEPNS_6vectorE
libqucs.so:_ZN4qucs7dataset17countDependenciesEv
libqucs.so:_ZN4qucs7dataset18appendDependenciesEPNS_6vectorE
libqucs.so:_ZN4qucs7dataset4loadEPKc
libqucs.so:_ZN4qucs7dataset5printEv
libqucs.so:_ZN4qucs7dataset7getFileEv
libqucs.so:_ZN4qucs7dataset7setFileEPKc
libqucs.so:_ZN4qucs7dataset8load_csvEPKc
libqucs.so:_ZN4qucs7dataset8load_mdlEPKc
libqucs.so:_ZN4qucs7dataset8load_zvrEPKc
libqucs.so:_ZN4qucs7dataset9load_citiEPKc
libqucs.so:_ZN4qucs7dataset9printDataEPNS_6vectorEP8_IO_FILE
libqucs.so:_ZN4qucs7datasetC1EPc
libqucs.so:_ZN4qucs7datasetC1ERKS0_
libqucs.so:_ZN4qucs7datasetC1Ev
libqucs.so:_ZN4qucs7datasetC2EPc
libqucs.so:_ZN4qucs7datasetC2ERKS0_
libqucs.so:_ZN4qucs7datasetC2Ev
libqucs.so:_ZN4qucs7datasetD1Ev
libqucs.so:_ZN4qucs7datasetD2Ev
libqucs.so:_ZN4qucs7deg2radENS_6matrixE
libqucs.so:_ZN4qucs7deg2radENS_6matvecE
libqucs.so:_ZN4qucs7deg2radENS_6vectorE
libqucs.so:_ZN4qucs7deg2radESt7complexIdE
libqucs.so:_ZN4qucs7deg2radEd
libqucs.so:_ZN4qucs7erfcinvENS_6vectorE
libqucs.so:_ZN4qucs7erfcinvESt7complexIdE
libqucs.so:_ZN4qucs7fourier10_fft_1d_2rEPdS1_i
libqucs.so:_ZN4qucs7fourier11_ifft_1d_2rEPdS1_i
libqucs.so:_ZN4qucs7fourier6dft_1dENS_6vectorEi
libqucs.so:_ZN4qucs7fourier6fft_1dENS_6vectorEi
libqucs.so:_ZN4qucs7fourier7_dft_1dEPdii
libqucs.so:_ZN4qucs7fourier7_fft_1dEPdii
libqucs.so:_ZN4qucs7fourier7_fft_ndEPdPiii
libqucs.so:_ZN4qucs7fourier7idft_1dENS_6vectorE
libqucs.so:_ZN4qucs7fourier7ifft_1dENS_6vectorE
libqucs.so:_ZN4qucs7fourier8_idft_1dEPdi
libqucs.so:_ZN4qucs7fourier8_ifft_1dEPdi
libqucs.so:_ZN4qucs7fourier8_ifft_ndEPdPii
libqucs.so:_ZN4qucs7fourier8fftshiftENS_6vectorE
libqucs.so:_ZN4qucs7history4dropEv
libqucs.so:_ZN4qucs7history4seekEdiiRdi
libqucs.so:_ZN4qucs7history7nearestEdb
libqucs.so:_ZN4qucs7history8interpolEdib
libqucs.so:_ZN4qucs7history8truncateEd
libqucs.so:_ZN4qucs7inverseENS_6matrixE
libqucs.so:_ZN4qucs7inverseENS_6matvecE
libqucs.so:_ZN4qucs7nodeset11findNodesetEPc
libqucs.so:_ZN4qucs7nodeset7getNameEv
libqucs.so:_ZN4qucs7nodeset7miscdefE
libqucs.so:_ZN4qucs7nodeset7setNameEPc
libqucs.so:_ZN4qucs7nodesetC1EPc
libqucs.so:_ZN4qucs7nodesetC1EPcd
libqucs.so:_ZN4qucs7nodesetC1ERKS0_
libqucs.so:_ZN4qucs7nodesetC1Ev
libqucs.so:_ZN4qucs7nodesetC2EPc
libqucs.so:_ZN4qucs7nodesetC2EPcd
libqucs.so:_ZN4qucs7nodesetC2ERKS0_
libqucs.so:_ZN4qucs7nodesetC2Ev
libqucs.so:_ZN4qucs7nodesetD0Ev
libqucs.so:_ZN4qucs7nodesetD1Ev
libqucs.so:_ZN4qucs7nodesetD2Ev
libqucs.so:_ZN4qucs7qucsint15prepare_netlistEPc
libqucs.so:_ZN4qucs7qucsint6outputEPc
libqucs.so:_ZN4qucs7qucsint8evaluateEv
libqucs.so:_ZN4qucs7qucsintC1EPc
libqucs.so:_ZN4qucs7qucsintC1Ev
libqucs.so:_ZN4qucs7qucsintC2EPc
libqucs.so:_ZN4qucs7qucsintC2Ev
libqucs.so:_ZN4qucs7qucsintD1Ev
libqucs.so:_ZN4qucs7qucsintD2Ev
libqucs.so:_ZN4qucs7rad2degENS_6matrixE
libqucs.so:_ZN4qucs7rad2degENS_6matvecE
libqucs.so:_ZN4qucs7rad2degENS_6vectorE
libqucs.so:_ZN4qucs7rad2degESt7complexIdE
libqucs.so:_ZN4qucs7rad2degEd
libqucs.so:_ZN4qucs7strlist3addEPKS0_
libqucs.so:_ZN4qucs7strlist3addEPKc
libqucs.so:_ZN4qucs7strlist3delEPS0_
libqucs.so:_ZN4qucs7strlist4joinEPS0_S1_
libqucs.so:_ZN4qucs7strlist5indexEPc
libqucs.so:_ZN4qucs7strlist6appendEPKS0_
libqucs.so:_ZN4qucs7strlist6appendEPKc
libqucs.so:_ZN4qucs7strlist8toStringEPKc
libqucs.so:_ZN4qucs7strlistC1ERKS0_
libqucs.so:_ZN4qucs7strlistC1Ev
libqucs.so:_ZN4qucs7strlistC2ERKS0_
libqucs.so:_ZN4qucs7strlistC2Ev
libqucs.so:_ZN4qucs7strlistD1Ev
libqucs.so:_ZN4qucs7strlistD2Ev
libqucs.so:_ZN4qucs7twoportENS_6matrixEcc
libqucs.so:_ZN4qucs7twoportENS_6matvecEcc
libqucs.so:_ZN4qucs8acsolver11solve_noiseEv
libqucs.so:_ZN4qucs8acsolver14saveAllResultsEd
libqucs.so:_ZN4qucs8acsolver16saveNoiseResultsEPNS_6vectorE
libqucs.so:_ZN4qucs8acsolver4calcEPS0_
libqucs.so:_ZN4qucs8acsolver4initEv
libqucs.so:_ZN4qucs8acsolver5solveEv
libqucs.so:_ZN4qucs8acsolver6anadefE
libqucs.so:_ZN4qucs8acsolverC1EPc
libqucs.so:_ZN4qucs8acsolverC1ERS0_
libqucs.so:_ZN4qucs8acsolverC1Ev
libqucs.so:_ZN4qucs8acsolverC2EPc
libqucs.so:_ZN4qucs8acsolverC2ERS0_
libqucs.so:_ZN4qucs8acsolverC2Ev
libqucs.so:_ZN4qucs8acsolverD0Ev
libqucs.so:_ZN4qucs8acsolverD1Ev
libqucs.so:_ZN4qucs8acsolverD2Ev
libqucs.so:_ZN4qucs8analysis11addAnalysisEPS0_
libqucs.so:_ZN4qucs8analysis11createSweepERKNSt7__cxx1112basic_stringIcSt11char_traitsIcESaIcEEE
libqucs.so:_ZN4qucs8analysis11delAnalysisEPS0_
libqucs.so:_ZN4qucs8analysis12saveVariableERKNSt7__cxx1112basic_stringIcSt11char_traitsIcESaIcEEESt7complexIdEPNS_6vectorE
libqucs.so:_ZN4qucs8analysisC1ERKNSt7__cxx1112basic_stringIcSt11char_traitsIcESaIcEEE
libqucs.so:_ZN4qucs8analysisC1ERS0_
libqucs.so:_ZN4qucs8analysisC1Ev
libqucs.so:_ZN4qucs8analysisC2ERKNSt7__cxx1112basic_stringIcSt11char_traitsIcESaIcEEE
libqucs.so:_ZN4qucs8analysisC2ERS0_
libqucs.so:_ZN4qucs8analysisC2Ev
libqucs.so:_ZN4qucs8analysisD0Ev
libqucs.so:_ZN4qucs8analysisD1Ev
libqucs.so:_ZN4qucs8analysisD2Ev
libqucs.so:_ZN4qucs8cbesseljEjSt7complexIdE
libqucs.so:_ZN4qucs8cofactorENS_6matrixEii
libqucs.so:_ZN4qucs8consweep6createEd
libqucs.so:_ZN4qucs8consweepC1ERKNSt7__cxx1112basic_stringIcSt11char_traitsIcESaIcEEE
libqucs.so:_ZN4qucs8consweepC1Ev
libqucs.so:_ZN4qucs8consweepC2ERKNSt7__cxx1112basic_stringIcSt11char_traitsIcESaIcEEE
libqucs.so:_ZN4qucs8consweepC2Ev
libqucs.so:_ZN4qucs8consweepD1Ev
libqucs.so:_ZN4qucs8consweepD2Ev
libqucs.so:_ZN4qucs8dcsolver19saveOperatingPointsEv
libqucs.so:_ZN4qucs8dcsolver4calcEPS0_
libqucs.so:_ZN4qucs8dcsolver4initEv
libqucs.so:_ZN4qucs8dcsolver5solveEv
libqucs.so:_ZN4qucs8dcsolver6anadefE
libqucs.so:_ZN4qucs8dcsolver7restartEv
libqucs.so:_ZN4qucs8dcsolverC1EPc
libqucs.so:_ZN4qucs8dcsolverC1ERS0_
libqucs.so:_ZN4qucs8dcsolverC1Ev
libqucs.so:_ZN4qucs8dcsolverC2EPc
libqucs.so:_ZN4qucs8dcsolverC2ERS0_
libqucs.so:_ZN4qucs8dcsolverC2Ev
libqucs.so:_ZN4qucs8dcsolverD0Ev
libqucs.so:_ZN4qucs8dcsolverD1Ev
libqucs.so:_ZN4qucs8dcsolverD2Ev
libqucs.so:_ZN4qucs8detGaussENS_6matrixE
libqucs.so:_ZN4qucs8diagonalENS_6vectorE
libqucs.so:_ZN4qucs8hbsolver10VectorIFFTEPNS_7tvectorISt7complexIdEEEi
libqucs.so:_ZN4qucs8hbsolver11assignNodesENSt7__cxx114listIPNS_7circuitESaIS4_EEEPNS_7strlistEi
libqucs.so:_ZN4qucs8hbsolver11excitationZEPNS_7tvectorISt7complexIdEEEPNS_7circuitEi
libqucs.so:_ZN4qucs8hbsolver11saveResultsEv
libqucs.so:_ZN4qucs8hbsolver12calcJacobianEv
libqucs.so:_ZN4qucs8hbsolver12checkBalanceEv
libqucs.so:_ZN4qucs8hbsolver12circuitNodesENSt7__cxx114listIPNS_7circuitESaIS4_EEE
libqucs.so:_ZN4qucs8hbsolver12expandMatrixENS_7tmatrixISt7complexIdEEEi
libqucs.so:_ZN4qucs8hbsolver12expandVectorENS_7tvectorISt7complexIdEEEi
libqucs.so:_ZN4qucs8hbsolver12getNodeListsEv
libqucs.so:_ZN4qucs8hbsolver12invertMatrixEPNS_7tmatrixISt7complexIdEEES5_
libqucs.so:_ZN4qucs8hbsolver12isExcitationEPNS_7circuitE
libqucs.so:_ZN4qucs8hbsolver12loadMatricesEv
libqucs.so:_ZN4qucs8hbsolver13finalSolutionEv
libqucs.so:_ZN4qucs8hbsolver13prepareLinearEv
libqucs.so:_ZN4qucs8hbsolver13solveVoltagesEv
libqucs.so:_ZN4qucs8hbsolver13splitCircuitsEv
libqucs.so:_ZN4qucs8hbsolver16prepareNonLinearEv
libqucs.so:_ZN4qucs8hbsolver16saveNodeVoltagesEPNS_7circuitEi
libqucs.so:_ZN4qucs8hbsolver17expandFrequenciesEdi
libqucs.so:_ZN4qucs8hbsolver17fillMatrixLinearAEPNS_7tmatrixISt7complexIdEEEi
libqucs.so:_ZN4qucs8hbsolver18collectFrequenciesEv
libqucs.so:_ZN4qucs8hbsolver18extendMatrixLinearENS_7tmatrixISt7complexIdEEEi
libqucs.so:_ZN4qucs8hbsolver19calcConstantCurrentEv
libqucs.so:_ZN4qucs8hbsolver19createMatrixLinearAEv
libqucs.so:_ZN4qucs8hbsolver19createMatrixLinearYEv
libqucs.so:_ZN4qucs8hbsolver19fillMatrixNonLinearEPNS_7tmatrixISt7complexIdEEES5_PNS_7tvectorIS3_EES8_S8_S8_i
libqucs.so:_ZN4qucs8hbsolver20assignVoltageSourcesENSt7__cxx114listIPNS_7circuitESaIS4_EEE
libqucs.so:_ZN4qucs8hbsolver24fillMatrixLinearExtendedEPNS_7tmatrixISt7complexIdEEEPNS_7tvectorIS3_EE
libqucs.so:_ZN4qucs8hbsolver4calcEPS0_
libqucs.so:_ZN4qucs8hbsolver5solveEv
libqucs.so:_ZN4qucs8hbsolver6anadefE
libqucs.so:_ZN4qucs8hbsolver6initDCEv
libqucs.so:_ZN4qucs8hbsolver6initHBEv
libqucs.so:_ZN4qucs8hbsolver7solveHBEv
libqucs.so:_ZN4qucs8hbsolver9MatrixFFTEPNS_7tmatrixISt7complexIdEEE
libqucs.so:_ZN4qucs8hbsolver9VectorFFTEPNS_7tvectorISt7complexIdEEEi
libqucs.so:_ZN4qucs8hbsolver9calcOrderEi
libqucs.so:_ZN4qucs8hbsolverC1EPc
libqucs.so:_ZN4qucs8hbsolverC1ERS0_
libqucs.so:_ZN4qucs8hbsolverC1Ev
libqucs.so:_ZN4qucs8hbsolverC2EPc
libqucs.so:_ZN4qucs8hbsolverC2ERS0_
libqucs.so:_ZN4qucs8hbsolverC2Ev
libqucs.so:_ZN4qucs8hbsolverD0Ev
libqucs.so:_ZN4qucs8hbsolverD1Ev
libqucs.so:_ZN4qucs8hbsolverD2Ev
libqucs.so:_ZN4qucs8linspaceEddi
libqucs.so:_ZN4qucs8linsweep6createEddi
libqucs.so:_ZN4qucs8linsweepC1ERKNSt7__cxx1112basic_stringIcSt11char_traitsIcESaIcEEE
libqucs.so:_ZN4qucs8linsweepC1Ev
libqucs.so:_ZN4qucs8linsweepC2ERKNSt7__cxx1112basic_stringIcSt11char_traitsIcESaIcEEE
libqucs.so:_ZN4qucs8linsweepC2Ev
libqucs.so:_ZN4qucs8linsweepD1Ev
libqucs.so:_ZN4qucs8linsweepD2Ev
libqucs.so:_ZN4qucs8logspaceEddi
libqucs.so:_ZN4qucs8logsweep6createEddi
libqucs.so:_ZN4qucs8logsweepC1ERKNSt7__cxx1112basic_stringIcSt11char_traitsIcESaIcEEE
libqucs.so:_ZN4qucs8logsweepC1Ev
libqucs.so:_ZN4qucs8logsweepC2ERKNSt7__cxx1112basic_stringIcSt11char_traitsIcESaIcEEE
libqucs.so:_ZN4qucs8logsweepC2Ev
libqucs.so:_ZN4qucs8logsweepD1Ev
libqucs.so:_ZN4qucs8logsweepD2Ev
libqucs.so:_ZN4qucs8lstsweep6createEi
libqucs.so:_ZN4qucs8lstsweepC1ERKNSt7__cxx1112basic_stringIcSt11char_traitsIcESaIcEEE
libqucs.so:_ZN4qucs8lstsweepC1Ev
libqucs.so:_ZN4qucs8lstsweepC2ERKNSt7__cxx1112basic_stringIcSt11char_traitsIcESaIcEEE
libqucs.so:_ZN4qucs8lstsweepC2Ev
libqucs.so:_ZN4qucs8lstsweepD1Ev
libqucs.so:_ZN4qucs8lstsweepD2Ev
libqucs.so:_ZN4qucs8nodelist11assignNodesEv
libqucs.so:_ZN4qucs8nodelist11sortedNodesEPPNS_4nodeES3_
libqucs.so:_ZN4qucs8nodelist14addCircuitNodeEPNS_10nodelist_tEPNS_4nodeE
libqucs.so:_ZN4qucs8nodelist4sortEv
libqucs.so:_ZN4qucs8nodelist6insertEPNS_10nodelist_tE
libqucs.so:_ZN4qucs8nodelist6insertEPNS_7circuitE
libqucs.so:_ZN4qucs8nodelist6removeEPNS_7circuitE
libqucs.so:_ZN4qucs8nodelistC1EPNS_3netE
libqucs.so:_ZN4qucs8nodelistC2EPNS_3netE
libqucs.so:_ZN4qucs8nodelistD1Ev
libqucs.so:_ZN4qucs8nodelistD2Ev
libqucs.so:_ZN4qucs8property3setEPNS_8variableE
libqucs.so:_ZN4qucs8property3setERKNSt7__cxx1112basic_stringIcSt11char_traitsIcESaIcEEE
libqucs.so:_ZN4qucs8property3setEd
libqucs.so:_ZN4qucs8property3setEi
libqucs.so:_ZN4qucs8propertyC1Ev
libqucs.so:_ZN4qucs8propertyC2Ev
libqucs.so:_ZN4qucs8propertyD0Ev
libqucs.so:_ZN4qucs8propertyD1Ev
libqucs.so:_ZN4qucs8propertyD2Ev
libqucs.so:_ZN4qucs8spsolver10dropGroundEPNS_7circuitE
libqucs.so:_ZN4qucs8spsolver10insertOpenEPNS_4nodeE
libqucs.so:_ZN4qucs8spsolver11insertCrossEPPNS_4nodeEPKc
libqucs.so:_ZN4qucs8spsolver11saveResultsEd
libqucs.so:_ZN4qucs8spsolver12insertGroundEPNS_4nodeE
libqucs.so:_ZN4qucs8spsolver12noiseConnectEPNS_7circuitEPNS_4nodeES4_
libqucs.so:_ZN4qucs8spsolver13connectedJoinEPNS_4nodeES2_
libqucs.so:_ZN4qucs8spsolver15dropConnectionsEv
libqucs.so:_ZN4qucs8spsolver16insertConnectorsEPNS_4nodeE
libqucs.so:_ZN4qucs8spsolver16interconnectJoinEPNS_4nodeES2_
libqucs.so:_ZN4qucs8spsolver16saveNoiseResultsEPSt7complexIdES3_dPNS_6vectorE
libqucs.so:_ZN4qucs8spsolver17insertConnectionsEv
libqucs.so:_ZN4qucs8spsolver17noiseInterconnectEPNS_7circuitEPNS_4nodeES4_
libqucs.so:_ZN4qucs8spsolver19saveCharacteristicsEd
libqucs.so:_ZN4qucs8spsolver20dropDifferentialPortEPNS_7circuitE
libqucs.so:_ZN4qucs8spsolver23insertDifferentialPortsEv
libqucs.so:_ZN4qucs8spsolver4calcEd
libqucs.so:_ZN4qucs8spsolver4initEv
libqucs.so:_ZN4qucs8spsolver5solveEv
libqucs.so:_ZN4qucs8spsolver6anadefE
libqucs.so:_ZN4qucs8spsolver6reduceEv
libqucs.so:_ZN4qucs8spsolver7dropTeeEPNS_7circuitE
libqucs.so:_ZN4qucs8spsolver8createCVERKNSt7__cxx1112basic_stringIcSt11char_traitsIcESaIcEEES8_
libqucs.so:_ZN4qucs8spsolver8createSPEii
libqucs.so:_ZN4qucs8spsolver8dropOpenEPNS_7circuitE
libqucs.so:_ZN4qucs8spsolver9dropCrossEPNS_7circuitE
libqucs.so:_ZN4qucs8spsolver9insertTeeEPPNS_4nodeEPKc
libqucs.so:_ZN4qucs8spsolverC1EPc
libqucs.so:_ZN4qucs8spsolverC1ERS0_
libqucs.so:_ZN4qucs8spsolverC1Ev
libqucs.so:_ZN4qucs8spsolverC2EPc
libqucs.so:_ZN4qucs8spsolverC2ERS0_
libqucs.so:_ZN4qucs8spsolverC2Ev
libqucs.so:_ZN4qucs8spsolverD0Ev
libqucs.so:_ZN4qucs8spsolverD1Ev
libqucs.so:_ZN4qucs8spsolverD2Ev
libqucs.so:_ZN4qucs8trsolver10checkDeltaEv
libqucs.so:_ZN4qucs8trsolver10dcAnalysisEv
libqucs.so:_ZN4qucs8trsolver10fillStatesEv
libqucs.so:_ZN4qucs8trsolver10nextStatesEv
libqucs.so:_ZN4qucs8trsolver11adjustDeltaEd
libqucs.so:_ZN4qucs8trsolver11adjustOrderEi
libqucs.so:_ZN4qucs8trsolver11initHistoryEd
libqucs.so:_ZN4qucs8trsolver11predictGearEv
libqucs.so:_ZN4qucs8trsolver11saveHistoryEPNS_7circuitE
libqucs.so:_ZN4qucs8trsolver12fillSolutionEPNS_7tvectorIdEE
libqucs.so:_ZN4qucs8trsolver12predictEulerEv
libqucs.so:_ZN4qucs8trsolver13initCircuitTREPNS_7circuitE
libqucs.so:_ZN4qucs8trsolver13updateHistoryEd
libqucs.so:_ZN4qucs8trsolver14saveAllResultsEd
libqucs.so:_ZN4qucs8trsolver15predictBashfordEv
libqucs.so:_ZN4qucs8trsolver18updateCoefficientsEd
libqucs.so:_ZN4qucs8trsolver5solveEv
libqucs.so:_ZN4qucs8trsolver6anadefE
libqucs.so:_ZN4qucs8trsolver6calcDCEPS0_
libqucs.so:_ZN4qucs8trsolver6calcTREPS0_
libqucs.so:_ZN4qucs8trsolver6initDCEv
libqucs.so:_ZN4qucs8trsolver6initTREv
libqucs.so:_ZN4qucs8trsolver7restartEv
libqucs.so:_ZN4qucs8trsolver7setModeEi
libqucs.so:_ZN4qucs8trsolver8deinitTREv
libqucs.so:_ZN4qucs8trsolver8setDeltaEv
libqucs.so:_ZN4qucs8trsolver9correctorEv
libqucs.so:_ZN4qucs8trsolver9initStepsEv
libqucs.so:_ZN4qucs8trsolver9predictorEv
libqucs.so:_ZN4qucs8trsolverC1ERKNSt7__cxx1112basic_stringIcSt11char_traitsIcESaIcEEE
libqucs.so:_ZN4qucs8trsolverC1ERS0_
libqucs.so:_ZN4qucs8trsolverC1Ev
libqucs.so:_ZN4qucs8trsolverC2ERKNSt7__cxx1112basic_stringIcSt11char_traitsIcESaIcEEE
libqucs.so:_ZN4qucs8trsolverC2ERS0_
libqucs.so:_ZN4qucs8trsolverC2Ev
libqucs.so:_ZN4qucs8trsolverD0Ev
libqucs.so:_ZN4qucs8trsolverD1Ev
libqucs.so:_ZN4qucs8trsolverD2Ev
libqucs.so:_ZN4qucs8variable8toStringEv
libqucs.so:_ZN4qucs8variableC1EPKc
libqucs.so:_ZN4qucs8variableC1ERKS0_
libqucs.so:_ZN4qucs8variableC1Ev
libqucs.so:_ZN4qucs8variableC2EPKc
libqucs.so:_ZN4qucs8variableC2ERKS0_
libqucs.so:_ZN4qucs8variableC2Ev
libqucs.so:_ZN4qucs9devstates11deviceStateEi
libqucs.so:_ZN4qucs9devstates11deviceStateEv
libqucs.so:_ZN4qucs9devstates12deviceStatesEii
libqucs.so:_ZN4qucs9devstates12deviceStatesEv
libqucs.so:_ZN4qucs9devstates9deviceVarEi
libqucs.so:_ZN4qucs9devstatesC1Eii
libqucs.so:_ZN4qucs9devstatesC1Ev
libqucs.so:_ZN4qucs9devstatesC2Eii
libqucs.so:_ZN4qucs9devstatesC2Ev
libqucs.so:_ZN4qucs9devstatesD1Ev
libqucs.so:_ZN4qucs9devstatesD2Ev
libqucs.so:_ZN4qucs9devstatesclEi
libqucs.so:_ZN4qucs9exception7setTextEPKcz
libqucs.so:_ZN4qucs9exceptionC1ERKS0_
libqucs.so:_ZN4qucs9exceptionC1Ei
libqucs.so:_ZN4qucs9exceptionC1Ev
libqucs.so:_ZN4qucs9exceptionC2ERKS0_
libqucs.so:_ZN4qucs9exceptionC2Ei
libqucs.so:_ZN4qucs9exceptionC2Ev
libqucs.so:_ZN4qucs9exceptionD1Ev
libqucs.so:_ZN4qucs9exceptionD2Ev
libqucs.so:_ZN4qucs9factorialEj
libqucs.so:_ZN4qucs9integrateENS_6vectorESt7complexIdE
libqucs.so:_ZN4qucs9integrateENS_6vectorEd
libqucs.so:_ZN4qucs9parasweep10initializeEv
libqucs.so:_ZN4qucs9parasweep11saveResultsEv
libqucs.so:_ZN4qucs9parasweep5solveEv
libqucs.so:_ZN4qucs9parasweep6anadefE
libqucs.so:_ZN4qucs9parasweep7cleanupEv
libqucs.so:_ZN4qucs9parasweepC1EPc
libqucs.so:_ZN4qucs9parasweepC1ERS0_
libqucs.so:_ZN4qucs9parasweepC1Ev
libqucs.so:_ZN4qucs9parasweepC2EPc
libqucs.so:_ZN4qucs9parasweepC2ERS0_
libqucs.so:_ZN4qucs9parasweepC2Ev
libqucs.so:_ZN4qucs9parasweepD0Ev
libqucs.so:_ZN4qucs9parasweepD1Ev
libqucs.so:_ZN4qucs9parasweepD2Ev
libqucs.so:_ZN4qucs9substrate7miscdefE
libqucs.so:_ZN4qucs9substrateC1ERKS0_
libqucs.so:_ZN4qucs9substrateC1Ev
libqucs.so:_ZN4qucs9substrateC2ERKS0_
libqucs.so:_ZN4qucs9substrateC2Ev
libqucs.so:_ZN4qucs9substrateD1Ev
libqucs.so:_ZN4qucs9substrateD2Ev
libqucs.so:_ZN4qucs9transient13correctorTypeEPKcRi
libqucs.so:_ZN4qucs9transient13correctorTypeEii
libqucs.so:_ZN4qucs9transient13integrateGearEPNS_10integratorEidRdS3_
libqucs.so:_ZN4qucs9transient13predictorTypeEiiRi
libqucs.so:_ZN4qucs9transient14getConductanceEPNS_10integratorEdRd
libqucs.so:_ZN4qucs9transient14integrateEulerEPNS_10integratorEidRdS3_
libqucs.so:_ZN4qucs9transient16integrateMoultonEPNS_10integratorEidRdS3_
libqucs.so:_ZN4qucs9transient17getCorrectorErrorEii
libqucs.so:_ZN4qucs9transient17getPredictorErrorEii
libqucs.so:_ZN4qucs9transient17integrateBilinearEPNS_10integratorEidRdS3_
libqucs.so:_ZN4qucs9transient18calcCorrectorCoeffEiiPdS1_
libqucs.so:_ZN4qucs9transient18calcPredictorCoeffEiiPdS1_
libqucs.so:_ZN4qucs9transient20setIntegrationMethodEPNS_7circuitEi
libqucs.so:_ZN4qucs9transposeENS_6matrixE
libqucs.so:_ZN4qucs9transposeENS_6matvecE
libqucs.so:_ZN4qucsdvENS_6matrixESt7complexIdE
libqucs.so:_ZN4qucsdvENS_6matrixEd
libqucs.so:_ZN4qucsdvENS_6matvecENS_6vectorE
libqucs.so:_ZN4qucsdvENS_6matvecESt7complexIdE
libqucs.so:_ZN4qucsdvENS_6matvecEd
libqucs.so:_ZN4qucsdvENS_6vectorES0_
libqucs.so:_ZN4qucsdvENS_6vectorESt7complexIdE
libqucs.so:_ZN4qucsdvENS_6vectorEd
libqucs.so:_ZN4qucsdvESt7complexIdENS_6vectorE
libqucs.so:_ZN4qucsdvEdNS_6vectorE
libqucs.so:_ZN4qucseqESt7complexIdES1_
libqucs.so:_ZN4qucsgeESt7complexIdES1_
libqucs.so:_ZN4qucsgtESt7complexIdES1_
libqucs.so:_ZN4qucsleESt7complexIdES1_
libqucs.so:_ZN4qucsltESt7complexIdES1_
libqucs.so:_ZN4qucsmiENS_6matrixENS_6matvecE
libqucs.so:_ZN4qucsmiENS_6matrixES0_
libqucs.so:_ZN4qucsmiENS_6matrixESt7complexIdE
libqucs.so:_ZN4qucsmiENS_6matrixEd
libqucs.so:_ZN4qucsmiENS_6matvecENS_6matrixE
libqucs.so:_ZN4qucsmiENS_6matvecENS_6vectorE
libqucs.so:_ZN4qucsmiENS_6matvecES0_
libqucs.so:_ZN4qucsmiENS_6matvecESt7complexIdE
libqucs.so:_ZN4qucsmiENS_6matvecEd
libqucs.so:_ZN4qucsmiENS_6vectorENS_6matvecE
libqucs.so:_ZN4qucsmiENS_6vectorES0_
libqucs.so:_ZN4qucsmiENS_6vectorESt7complexIdE
libqucs.so:_ZN4qucsmiENS_6vectorEd
libqucs.so:_ZN4qucsmiESt7complexIdENS_6matrixE
libqucs.so:_ZN4qucsmiESt7complexIdENS_6matvecE
libqucs.so:_ZN4qucsmiESt7complexIdENS_6vectorE
libqucs.so:_ZN4qucsmiEdNS_6matrixE
libqucs.so:_ZN4qucsmiEdNS_6matvecE
libqucs.so:_ZN4qucsmiEdNS_6vectorE
libqucs.so:_ZN4qucsmlENS_6matrixENS_6matvecE
libqucs.so:_ZN4qucsmlENS_6matrixES0_
libqucs.so:_ZN4qucsmlENS_6matrixESt7complexIdE
libqucs.so:_ZN4qucsmlENS_6matrixEd
libqucs.so:_ZN4qucsmlENS_6matvecENS_6matrixE
libqucs.so:_ZN4qucsmlENS_6matvecENS_6vectorE
libqucs.so:_ZN4qucsmlENS_6matvecES0_
libqucs.so:_ZN4qucsmlENS_6matvecESt7complexIdE
libqucs.so:_ZN4qucsmlENS_6matvecEd
libqucs.so:_ZN4qucsmlENS_6vectorENS_6matvecE
libqucs.so:_ZN4qucsmlENS_6vectorES0_
libqucs.so:_ZN4qucsmlENS_6vectorESt7complexIdE
libqucs.so:_ZN4qucsmlENS_6vectorEd
libqucs.so:_ZN4qucsmlESt7complexIdENS_6matrixE
libqucs.so:_ZN4qucsmlESt7complexIdENS_6matvecE
libqucs.so:_ZN4qucsmlESt7complexIdENS_6vectorE
libqucs.so:_ZN4qucsmlEdNS_6matrixE
libqucs.so:_ZN4qucsmlEdNS_6matvecE
libqucs.so:_ZN4qucsmlEdNS_6vectorE
libqucs.so:_ZN4qucsneESt7complexIdES1_
libqucs.so:_ZN4qucsplENS_6matrixENS_6matvecE
libqucs.so:_ZN4qucsplENS_6matrixES0_
libqucs.so:_ZN4qucsplENS_6matrixESt7complexIdE
libqucs.so:_ZN4qucsplENS_6matrixEd
libqucs.so:_ZN4qucsplENS_6matvecENS_6matrixE
libqucs.so:_ZN4qucsplENS_6matvecENS_6vectorE
libqucs.so:_ZN4qucsplENS_6matvecES0_
libqucs.so:_ZN4qucsplENS_6matvecESt7complexIdE
libqucs.so:_ZN4qucsplENS_6matvecEd
libqucs.so:_ZN4qucsplENS_6vectorENS_6matvecE
libqucs.so:_ZN4qucsplENS_6vectorES0_
libqucs.so:_ZN4qucsplENS_6vectorESt7complexIdE
libqucs.so:_ZN4qucsplENS_6vectorEd
libqucs.so:_ZN4qucsplESt7complexIdENS_6matrixE
libqucs.so:_ZN4qucsplESt7complexIdENS_6matvecE
libqucs.so:_ZN4qucsplESt7complexIdENS_6vectorE
libqucs.so:_ZN4qucsplEdNS_6matrixE
libqucs.so:_ZN4qucsplEdNS_6matvecE
libqucs.so:_ZN4qucsplEdNS_6vectorE
libqucs.so:_ZN4qucsrmENS_6vectorES0_
libqucs.so:_ZN4qucsrmENS_6vectorESt7complexIdE
libqucs.so:_ZN4qucsrmENS_6vectorEd
libqucs.so:_ZN4qucsrmESt7complexIdENS_6vectorE
libqucs.so:_ZN4qucsrmESt7complexIdES1_
libqucs.so:_ZN4qucsrmESt7complexIdEd
libqucs.so:_ZN4qucsrmEdNS_6vectorE
libqucs.so:_ZN4qucsrmEdSt7complexIdE
libqucs.so:_ZN4rlcg11calcNoiseACEd
libqucs.so:_ZN4rlcg11calcNoiseSPEd
libqucs.so:_ZN4rlcg15calcPropagationEd
libqucs.so:_ZN4rlcg19saveCharacteristicsEd
libqucs.so:_ZN4rlcg6calcACEd
libqucs.so:_ZN4rlcg6calcSPEd
libqucs.so:_ZN4rlcg6cirdefE
libqucs.so:_ZN4rlcg6initACEv
libqucs.so:_ZN4rlcg6initDCEv
libqucs.so:_ZN4rlcg6initTREv
libqucs.so:_ZN4rlcgC1Ev
libqucs.so:_ZN4rlcgC2Ev
libqucs.so:_ZN4vccs6calcACEd
libqucs.so:_ZN4vccs6calcSPEd
libqucs.so:_ZN4vccs6calcTREd
libqucs.so:_ZN4vccs6cirdefE
libqucs.so:_ZN4vccs6initACEv
libqucs.so:_ZN4vccs6initDCEv
libqucs.so:_ZN4vccs6initTREv
libqucs.so:_ZN4vccsC1Ev
libqucs.so:_ZN4vccsC2Ev
libqucs.so:_ZN4vcvs6calcACEd
libqucs.so:_ZN4vcvs6calcSPEd
libqucs.so:_ZN4vcvs6calcTREd
libqucs.so:_ZN4vcvs6cirdefE
libqucs.so:_ZN4vcvs6initACEv
libqucs.so:_ZN4vcvs6initDCEv
libqucs.so:_ZN4vcvs6initTREv
libqucs.so:_ZN4vcvsC1Ev
libqucs.so:_ZN4vcvsC2Ev
libqucs.so:_ZN4vexp6calcTREd
libqucs.so:_ZN4vexp6cirdefE
libqucs.so:_ZN4vexp6initACEv
libqucs.so:_ZN4vexp6initDCEv
libqucs.so:_ZN4vexp6initSPEv
libqucs.so:_ZN4vexp6initTREv
libqucs.so:_ZN4vexpC1Ev
libqucs.so:_ZN4vexpC2Ev
libqucs.so:_ZN5cross6initACEv
libqucs.so:_ZN5cross6initDCEv
libqucs.so:_ZN5cross6initSPEv
libqucs.so:_ZN5cross6initTREv
libqucs.so:_ZN5crossC1Ev
libqucs.so:_ZN5crossC2Ev
libqucs.so:_ZN5diode11calcNoiseACEd
libqucs.so:_ZN5diode11calcNoiseSPEd
libqucs.so:_ZN5diode12calcMatrixCyEd
libqucs.so:_ZN5diode19calcOperatingPointsEv
libqucs.so:_ZN5diode19loadOperatingPointsEv
libqucs.so:_ZN5diode19saveOperatingPointsEv
libqucs.so:_ZN5diode6calcACEd
libqucs.so:_ZN5diode6calcDCEv
libqucs.so:_ZN5diode6calcHBEi
libqucs.so:_ZN5diode6calcSPEd
libqucs.so:_ZN5diode6calcTREd
libqucs.so:_ZN5diode6cirdefE
libqucs.so:_ZN5diode6initACEv
libqucs.so:_ZN5diode6initDCEv
libqucs.so:_ZN5diode6initHBEi
libqucs.so:_ZN5diode6initTREv
libqucs.so:_ZN5diode9initModelEv
libqucs.so:_ZN5diode9prepareDCEv
libqucs.so:_ZN5diode9restartDCEv
libqucs.so:_ZN5diodeC1Ev
libqucs.so:_ZN5diodeC2Ev
libqucs.so:_ZN5ifile6calcTREd
libqucs.so:_ZN5ifile6cirdefE
libqucs.so:_ZN5ifile6initACEv
libqucs.so:_ZN5ifile6initDCEv
libqucs.so:_ZN5ifile6initSPEv
libqucs.so:_ZN5ifile6initTREv
libqucs.so:_ZN5ifile7prepareEv
libqucs.so:_ZN5ifileC1Ev
libqucs.so:_ZN5ifileC2Ev
libqucs.so:_ZN5ifileD0Ev
libqucs.so:_ZN5ifileD1Ev
libqucs.so:_ZN5ifileD2Ev
libqucs.so:_ZN5irect6calcTREd
libqucs.so:_ZN5irect6cirdefE
libqucs.so:_ZN5irect6initACEv
libqucs.so:_ZN5irect6initDCEv
libqucs.so:_ZN5irect6initSPEv
libqucs.so:_ZN5irect6initTREv
libqucs.so:_ZN5irectC1Ev
libqucs.so:_ZN5irectC2Ev
libqucs.so:_ZN5msgap11calcMatrixYEd
libqucs.so:_ZN5msgap6calcACEd
libqucs.so:_ZN5msgap6calcSPEd
libqucs.so:_ZN5msgap6cirdefE
libqucs.so:_ZN5msgap6initDCEv
libqucs.so:_ZN5msgapC1Ev
libqucs.so:_ZN5msgapC2Ev
libqucs.so:_ZN5mstee11initNoiseACEv
libqucs.so:_ZN5mstee11initNoiseSPEv
libqucs.so:_ZN5mstee15calcPropagationEd
libqucs.so:_ZN5mstee6calcACEd
libqucs.so:_ZN5mstee6calcSPEd
libqucs.so:_ZN5mstee6cirdefE
libqucs.so:_ZN5mstee6initACEv
libqucs.so:_ZN5mstee6initDCEv
libqucs.so:_ZN5mstee6initSPEv
libqucs.so:_ZN5mstee6initTREv
libqucs.so:_ZN5mstee9initLinesEv
libqucs.so:_ZN5msteeC1Ev
libqucs.so:_ZN5msteeC2Ev
libqucs.so:_ZN5msvia11calcNoiseACEd
libqucs.so:_ZN5msvia11calcNoiseSPEd
libqucs.so:_ZN5msvia13calcImpedanceEd
libqucs.so:_ZN5msvia14calcResistanceEv
libqucs.so:_ZN5msvia6calcACEd
libqucs.so:_ZN5msvia6calcSPEd
libqucs.so:_ZN5msvia6cirdefE
libqucs.so:_ZN5msvia6initACEv
libqucs.so:_ZN5msvia6initDCEv
libqucs.so:_ZN5msvia6initSPEv
libqucs.so:_ZN5msviaC1Ev
libqucs.so:_ZN5msviaC2Ev
libqucs.so:_ZN5nigbt11calcMatrixYEd
libqucs.so:_ZN5nigbt11calcNoiseACEd
libqucs.so:_ZN5nigbt11calcNoiseSPEd
libqucs.so:_ZN5nigbt11calcVerilogEv
libqucs.so:_ZN5nigbt11initVerilogEv
libqucs.so:_ZN5nigbt11initialStepEv
libqucs.so:_ZN5nigbt12calcMatrixCyEd
libqucs.so:_ZN5nigbt13loadVariablesEv
libqucs.so:_ZN5nigbt15initializeModelEv
libqucs.so:_ZN5nigbt18initializeInstanceEv
libqucs.so:_ZN5nigbt19calcOperatingPointsEv
libqucs.so:_ZN5nigbt19loadOperatingPointsEv
libqucs.so:_ZN5nigbt19saveOperatingPointsEv
libqucs.so:_ZN5nigbt6calcACEd
libqucs.so:_ZN5nigbt6calcDCEv
libqucs.so:_ZN5nigbt6calcHBEi
libqucs.so:_ZN5nigbt6calcSPEd
libqucs.so:_ZN5nigbt6calcTREd
libqucs.so:_ZN5nigbt6cirdefE
libqucs.so:_ZN5nigbt6initACEv
libqucs.so:_ZN5nigbt6initDCEv
libqucs.so:_ZN5nigbt6initHBEi
libqucs.so:_ZN5nigbt6initSPEv
libqucs.so:_ZN5nigbt6initTREv
libqucs.so:_ZN5nigbt9finalStepEv
libqucs.so:_ZN5nigbt9initModelEv
libqucs.so:_ZN5nigbt9restartDCEv
libqucs.so:_ZN5nigbtC1Ev
libqucs.so:_ZN5nigbtC2Ev
libqucs.so:_ZN5opamp19calcOperatingPointsEv
libqucs.so:_ZN5opamp6calcDCEv
libqucs.so:_ZN5opamp6calcTREd
libqucs.so:_ZN5opamp6cirdefE
libqucs.so:_ZN5opamp6initACEv
libqucs.so:_ZN5opamp6initDCEv
libqucs.so:_ZN5opamp6initSPEv
libqucs.so:_ZN5opamp6initTREv
libqucs.so:_ZN5opampC1Ev
libqucs.so:_ZN5opampC2Ev
libqucs.so:_ZN5rfedd10calcMatrixEd
libqucs.so:_ZN5rfedd12prepareModelEv
libqucs.so:_ZN5rfedd12updateLocalsEd
libqucs.so:_ZN5rfedd14createVariableEPKcb
libqucs.so:_ZN5rfedd14createVariableEPKciib
libqucs.so:_ZN5rfedd6calcACEd
libqucs.so:_ZN5rfedd6calcDCEv
libqucs.so:_ZN5rfedd6calcSPEd
libqucs.so:_ZN5rfedd6calcTREd
libqucs.so:_ZN5rfedd6cirdefE
libqucs.so:_ZN5rfedd6initACEv
libqucs.so:_ZN5rfedd6initDCEv
libqucs.so:_ZN5rfedd6initSPEv
libqucs.so:_ZN5rfedd6initTREv
libqucs.so:_ZN5rfedd7calcMNAEd
libqucs.so:_ZN5rfedd7initMNAEv
libqucs.so:_ZN5rfedd9getResultEPv
libqucs.so:_ZN5rfedd9initModelEv
libqucs.so:_ZN5rfedd9setResultEPvSt7complexIdE
libqucs.so:_ZN5rfedd9setResultEPvd
libqucs.so:_ZN5rfeddC1Ev
libqucs.so:_ZN5rfeddC2Ev
libqucs.so:_ZN5rfeddD0Ev
libqucs.so:_ZN5rfeddD1Ev
libqucs.so:_ZN5rfeddD2Ev
libqucs.so:_ZN5tline11calcNoiseACEd
libqucs.so:_ZN5tline11calcNoiseSPEd
libqucs.so:_ZN5tline6calcACEd
libqucs.so:_ZN5tline6calcSPEd
libqucs.so:_ZN5tline6calcTREd
libqucs.so:_ZN5tline6cirdefE
libqucs.so:_ZN5tline6initACEv
libqucs.so:_ZN5tline6initDCEv
libqucs.so:_ZN5tline6initTREv
libqucs.so:_ZN5tlineC1Ev
libqucs.so:_ZN5tlineC2Ev
libqucs.so:_ZN5trafo6cirdefE
libqucs.so:_ZN5trafo6initACEv
libqucs.so:_ZN5trafo6initDCEv
libqucs.so:_ZN5trafo6initSPEv
libqucs.so:_ZN5trafo6initTREv
libqucs.so:_ZN5trafoC1Ev
libqucs.so:_ZN5trafoC2Ev
libqucs.so:_ZN5triac11calcMatrixYEd
libqucs.so:_ZN5triac12calcTheModelEb
libqucs.so:_ZN5triac19calcOperatingPointsEv
libqucs.so:_ZN5triac19loadOperatingPointsEv
libqucs.so:_ZN5triac19saveOperatingPointsEv
libqucs.so:_ZN5triac6calcACEd
libqucs.so:_ZN5triac6calcDCEv
libqucs.so:_ZN5triac6calcSPEd
libqucs.so:_ZN5triac6calcTREd
libqucs.so:_ZN5triac6cirdefE
libqucs.so:_ZN5triac6initACEv
libqucs.so:_ZN5triac6initDCEv
libqucs.so:_ZN5triac6initTREv
libqucs.so:_ZN5triacC1Ev
libqucs.so:_ZN5triacC2Ev
libqucs.so:_ZN5vfile6calcTREd
libqucs.so:_ZN5vfile6cirdefE
libqucs.so:_ZN5vfile6initACEv
libqucs.so:_ZN5vfile6initDCEv
libqucs.so:_ZN5vfile6initSPEv
libqucs.so:_ZN5vfile6initTREv
libqucs.so:_ZN5vfile7prepareEv
libqucs.so:_ZN5vfileC1Ev
libqucs.so:_ZN5vfileC2Ev
libqucs.so:_ZN5vfileD0Ev
libqucs.so:_ZN5vfileD1Ev
libqucs.so:_ZN5vfileD2Ev
libqucs.so:_ZN5vrect6calcTREd
libqucs.so:_ZN5vrect6cirdefE
libqucs.so:_ZN5vrect6initACEv
libqucs.so:_ZN5vrect6initDCEv
libqucs.so:_ZN5vrect6initSPEv
libqucs.so:_ZN5vrect6initTREv
libqucs.so:_ZN5vrectC1Ev
libqucs.so:_ZN5vrectC2Ev
libqucs.so:_ZN6MESFET11calcMatrixYEd
libqucs.so:_ZN6MESFET11calcNoiseACEd
libqucs.so:_ZN6MESFET11calcNoiseSPEd
libqucs.so:_ZN6MESFET11calcVerilogEv
libqucs.so:_ZN6MESFET11initVerilogEv
libqucs.so:_ZN6MESFET11initialStepEv
libqucs.so:_ZN6MESFET12calcMatrixCyEd
libqucs.so:_ZN6MESFET13loadVariablesEv
libqucs.so:_ZN6MESFET15initializeModelEv
libqucs.so:_ZN6MESFET18initializeInstanceEv
libqucs.so:_ZN6MESFET19calcOperatingPointsEv
libqucs.so:_ZN6MESFET19loadOperatingPointsEv
libqucs.so:_ZN6MESFET19saveOperatingPointsEv
libqucs.so:_ZN6MESFET6calcACEd
libqucs.so:_ZN6MESFET6calcDCEv
libqucs.so:_ZN6MESFET6calcHBEi
libqucs.so:_ZN6MESFET6calcSPEd
libqucs.so:_ZN6MESFET6calcTREd
libqucs.so:_ZN6MESFET6cirdefE
libqucs.so:_ZN6MESFET6initACEv
libqucs.so:_ZN6MESFET6initDCEv
libqucs.so:_ZN6MESFET6initHBEi
libqucs.so:_ZN6MESFET6initSPEv
libqucs.so:_ZN6MESFET6initTREv
libqucs.so:_ZN6MESFET9finalStepEv
libqucs.so:_ZN6MESFET9initModelEv
libqucs.so:_ZN6MESFET9restartDCEv
libqucs.so:_ZN6MESFETC1Ev
libqucs.so:_ZN6MESFETC2Ev
libqucs.so:_ZN6ashort6initACEv
libqucs.so:_ZN6ashort6initDCEv
libqucs.so:_ZN6ashort6initHBEv
libqucs.so:_ZN6ashort6initSPEv
libqucs.so:_ZN6ashort6initTREv
libqucs.so:_ZN6ashortC1Ev
libqucs.so:_ZN6ashortC2Ev
libqucs.so:_ZN6buffer10calcOutputEv
libqucs.so:_ZN6buffer15calcDerivativesEv
libqucs.so:_ZN6buffer6cirdefE
libqucs.so:_ZN6bufferC1Ev
libqucs.so:_ZN6bufferC2Ev
libqucs.so:_ZN6cpwgap11calcMatrixYEd
libqucs.so:_ZN6cpwgap6calcACEd
libqucs.so:_ZN6cpwgap6calcSPEd
libqucs.so:_ZN6cpwgap6cirdefE
libqucs.so:_ZN6cpwgap6initDCEv
libqucs.so:_ZN6cpwgapC1Ev
libqucs.so:_ZN6cpwgapC2Ev
libqucs.so:_ZN6ctline11calcNoiseACEd
libqucs.so:_ZN6ctline11calcNoiseSPEd
libqucs.so:_ZN6ctline6calcACEd
libqucs.so:_ZN6ctline6calcSPEd
libqucs.so:_ZN6ctline6cirdefE
libqucs.so:_ZN6ctline6initACEv
libqucs.so:_ZN6ctline6initDCEv
libqucs.so:_ZN6ctlineC1Ev
libqucs.so:_ZN6ctlineC2Ev
libqucs.so:_ZN6dcfeed6calcTREd
libqucs.so:_ZN6dcfeed6cirdefE
libqucs.so:_ZN6dcfeed6initACEv
libqucs.so:_ZN6dcfeed6initDCEv
libqucs.so:_ZN6dcfeed6initSPEv
libqucs.so:_ZN6dcfeed6initTREv
libqucs.so:_ZN6dcfeedC1Ev
libqucs.so:_ZN6dcfeedC2Ev
libqucs.so:_ZN6dff_SR11calcMatrixYEd
libqucs.so:_ZN6dff_SR11calcNoiseACEd
libqucs.so:_ZN6dff_SR11calcNoiseSPEd
libqucs.so:_ZN6dff_SR11calcVerilogEv
libqucs.so:_ZN6dff_SR11initVerilogEv
libqucs.so:_ZN6dff_SR11initialStepEv
libqucs.so:_ZN6dff_SR12calcMatrixCyEd
libqucs.so:_ZN6dff_SR13loadVariablesEv
libqucs.so:_ZN6dff_SR15initializeModelEv
libqucs.so:_ZN6dff_SR18initializeInstanceEv
libqucs.so:_ZN6dff_SR19calcOperatingPointsEv
libqucs.so:_ZN6dff_SR19loadOperatingPointsEv
libqucs.so:_ZN6dff_SR19saveOperatingPointsEv
libqucs.so:_ZN6dff_SR6calcACEd
libqucs.so:_ZN6dff_SR6calcDCEv
libqucs.so:_ZN6dff_SR6calcHBEi
libqucs.so:_ZN6dff_SR6calcSPEd
libqucs.so:_ZN6dff_SR6calcTREd
libqucs.so:_ZN6dff_SR6cirdefE
libqucs.so:_ZN6dff_SR6initACEv
libqucs.so:_ZN6dff_SR6initDCEv
libqucs.so:_ZN6dff_SR6initHBEi
libqucs.so:_ZN6dff_SR6initSPEv
libqucs.so:_ZN6dff_SR6initTREv
libqucs.so:_ZN6dff_SR9finalStepEv
libqucs.so:_ZN6dff_SR9initModelEv
libqucs.so:_ZN6dff_SR9restartDCEv
libqucs.so:_ZN6dff_SRC1Ev
libqucs.so:_ZN6dff_SRC2Ev
libqucs.so:_ZN6ground6initSPEv
libqucs.so:_ZN6groundC1Ev
libqucs.so:_ZN6groundC2Ev
libqucs.so:_ZN6hybrid6cirdefE
libqucs.so:_ZN6hybrid6initACEv
libqucs.so:_ZN6hybrid6initDCEv
libqucs.so:_ZN6hybrid6initSPEv
libqucs.so:_ZN6hybrid6initTREv
libqucs.so:_ZN6hybridC1Ev
libqucs.so:_ZN6hybridC2Ev
libqucs.so:_ZN6inoise11calcNoiseACEd
libqucs.so:_ZN6inoise11calcNoiseSPEd
libqucs.so:_ZN6inoise6cirdefE
libqucs.so:_ZN6inoise6initSPEv
libqucs.so:_ZN6inoiseC1Ev
libqucs.so:_ZN6inoiseC2Ev
libqucs.so:_ZN6iprobe6cirdefE
libqucs.so:_ZN6iprobe6initACEv
libqucs.so:_ZN6iprobe6initDCEv
libqucs.so:_ZN6iprobe6initSPEv
libqucs.so:_ZN6iprobe6initTREv
libqucs.so:_ZN6iprobeC1Ev
libqucs.so:_ZN6iprobeC2Ev
libqucs.so:_ZN6ipulse6calcTREd
libqucs.so:_ZN6ipulse6cirdefE
libqucs.so:_ZN6ipulse6initACEv
libqucs.so:_ZN6ipulse6initDCEv
libqucs.so:_ZN6ipulse6initSPEv
libqucs.so:_ZN6ipulse6initTREv
libqucs.so:_ZN6ipulseC1Ev
libqucs.so:_ZN6ipulseC2Ev
libqucs.so:_ZN6itrafo6initSPEv
libqucs.so:_ZN6itrafoC1Ev
libqucs.so:_ZN6itrafoC2Ev
libqucs.so:_ZN6mosfet11calcMatrixYEd
libqucs.so:_ZN6mosfet11calcNoiseACEd
libqucs.so:_ZN6mosfet11calcNoiseSPEd
libqucs.so:_ZN6mosfet12calcMatrixCyEd
libqucs.so:_ZN6mosfet17transientChargeSREiRddd
libqucs.so:_ZN6mosfet17transientChargeTREiRddd
libqucs.so:_ZN6mosfet19calcOperatingPointsEv
libqucs.so:_ZN6mosfet19loadOperatingPointsEv
libqucs.so:_ZN6mosfet19saveOperatingPointsEv
libqucs.so:_ZN6mosfet6calcACEd
libqucs.so:_ZN6mosfet6calcDCEv
libqucs.so:_ZN6mosfet6calcSPEd
libqucs.so:_ZN6mosfet6calcTREd
libqucs.so:_ZN6mosfet6cirdefE
libqucs.so:_ZN6mosfet6initACEv
libqucs.so:_ZN6mosfet6initDCEv
libqucs.so:_ZN6mosfet6initTREv
libqucs.so:_ZN6mosfet9initModelEv
libqucs.so:_ZN6mosfet9restartDCEv
libqucs.so:_ZN6mosfetC1Ev
libqucs.so:_ZN6mosfetC2Ev
libqucs.so:_ZN6msline11analyseLossEddddddddddPKcRdS2_
libqucs.so:_ZN6msline11calcNoiseACEd
libqucs.so:_ZN6msline11calcNoiseSPEd
libqucs.so:_ZN6msline13Hammerstad_abEddRdS0_
libqucs.so:_ZN6msline13Hammerstad_erEddddRd
libqucs.so:_ZN6msline13Hammerstad_zlEdRd
libqucs.so:_ZN6msline13Kirschning_erEddddRd
libqucs.so:_ZN6msline13Kirschning_zlEddddddRdS0_
libqucs.so:_ZN6msline14Getsinger_dispEdddddRdS0_
libqucs.so:_ZN6msline15calcPropagationEd
libqucs.so:_ZN6msline17analyseDispersionEddddddPKcRdS2_
libqucs.so:_ZN6msline18analyseQuasiStaticEddddPKcRdS2_S2_
libqucs.so:_ZN6msline19saveCharacteristicsEd
libqucs.so:_ZN6msline6calcACEd
libqucs.so:_ZN6msline6calcSPEd
libqucs.so:_ZN6msline6cirdefE
libqucs.so:_ZN6msline6initACEv
libqucs.so:_ZN6msline6initDCEv
libqucs.so:_ZN6mslineC1Ev
libqucs.so:_ZN6mslineC2Ev
libqucs.so:_ZN6msopen5calcYEd
libqucs.so:_ZN6msopen6calcACEd
libqucs.so:_ZN6msopen6calcSPEd
libqucs.so:_ZN6msopen6cirdefE
libqucs.so:_ZN6msopen6initDCEv
libqucs.so:_ZN6msopen8calcCendEdddddPKcS1_S1_
libqucs.so:_ZN6msopenC1Ev
libqucs.so:_ZN6msopenC2Ev
libqucs.so:_ZN6msstep11calcMatrixZEd
libqucs.so:_ZN6msstep6calcACEd
libqucs.so:_ZN6msstep6calcSPEd
libqucs.so:_ZN6msstep6cirdefE
libqucs.so:_ZN6msstep6initACEv
libqucs.so:_ZN6msstep6initDCEv
libqucs.so:_ZN6msstep6initTREv
libqucs.so:_ZN6msstepC1Ev
libqucs.so:_ZN6msstepC2Ev
libqucs.so:_ZN6mutual11calcMatrixYEd
libqucs.so:_ZN6mutual6calcACEd
libqucs.so:_ZN6mutual6calcSPEd
libqucs.so:_ZN6mutual6calcTREd
libqucs.so:_ZN6mutual6cirdefE
libqucs.so:_ZN6mutual6initACEv
libqucs.so:_ZN6mutual6initDCEv
libqucs.so:_ZN6mutual6initTREv
libqucs.so:_ZN6mutualC1Ev
libqucs.so:_ZN6mutualC2Ev
libqucs.so:_ZN6relais11calcNoiseACEd
libqucs.so:_ZN6relais11calcNoiseSPEd
libqucs.so:_ZN6relais19saveOperatingPointsEv
libqucs.so:_ZN6relais6calcDCEv
libqucs.so:_ZN6relais6calcTREd
libqucs.so:_ZN6relais6cirdefE
libqucs.so:_ZN6relais6initACEv
libqucs.so:_ZN6relais6initDCEv
libqucs.so:_ZN6relais6initSPEv
libqucs.so:_ZN6relais6initTREv
libqucs.so:_ZN6relaisC1Ev
libqucs.so:_ZN6relaisC2Ev
libqucs.so:_ZN6spfile11calcNoiseACEd
libqucs.so:_ZN6spfile11calcNoiseSPEd
libqucs.so:_ZN6spfile11createIndexEv
libqucs.so:_ZN6spfile11noiseFigureEN4qucs6matrixES1_RdRSt7complexIdES2_
libqucs.so:_ZN6spfile12calcMatrixCsEd
libqucs.so:_ZN6spfile12createVectorEii
libqucs.so:_ZN6spfile17correlationMatrixEdSt7complexIdEdN4qucs6matrixE
libqucs.so:_ZN6spfile17expandNoiseMatrixEN4qucs6matrixES1_
libqucs.so:_ZN6spfile17expandSParaMatrixEN4qucs6matrixE
libqucs.so:_ZN6spfile17shrinkNoiseMatrixEN4qucs6matrixES1_
libqucs.so:_ZN6spfile17shrinkSParaMatrixEN4qucs6matrixE
libqucs.so:_ZN6spfile18getInterpolMatrixSEd
libqucs.so:_ZN6spfile6calcACEd
libqucs.so:_ZN6spfile6calcSPEd
libqucs.so:_ZN6spfile6cirdefE
libqucs.so:_ZN6spfile6initACEv
libqucs.so:_ZN6spfile6initDCEv
libqucs.so:_ZN6spfile6initSPEv
libqucs.so:_ZN6spfile6initTREv
libqucs.so:_ZN6spfile7prepareEv
libqucs.so:_ZN6spfileC1Ev
libqucs.so:_ZN6spfileC2Ev
libqucs.so:_ZN6spfileD0Ev
libqucs.so:_ZN6spfileD1Ev
libqucs.so:_ZN6spfileD2Ev
libqucs.so:_ZN6strafo6cirdefE
libqucs.so:_ZN6strafo6initACEv
libqucs.so:_ZN6strafo6initDCEv
libqucs.so:_ZN6strafo6initSPEv
libqucs.so:_ZN6strafo6initTREv
libqucs.so:_ZN6strafoC1Ev
libqucs.so:_ZN6strafoC2Ev
libqucs.so:_ZN6tff_SR11calcMatrixYEd
libqucs.so:_ZN6tff_SR11calcNoiseACEd
libqucs.so:_ZN6tff_SR11calcNoiseSPEd
libqucs.so:_ZN6tff_SR11calcVerilogEv
libqucs.so:_ZN6tff_SR11initVerilogEv
libqucs.so:_ZN6tff_SR11initialStepEv
libqucs.so:_ZN6tff_SR12calcMatrixCyEd
libqucs.so:_ZN6tff_SR13loadVariablesEv
libqucs.so:_ZN6tff_SR15initializeModelEv
libqucs.so:_ZN6tff_SR18initializeInstanceEv
libqucs.so:_ZN6tff_SR19calcOperatingPointsEv
libqucs.so:_ZN6tff_SR19loadOperatingPointsEv
libqucs.so:_ZN6tff_SR19saveOperatingPointsEv
libqucs.so:_ZN6tff_SR6calcACEd
libqucs.so:_ZN6tff_SR6calcDCEv
libqucs.so:_ZN6tff_SR6calcHBEi
libqucs.so:_ZN6tff_SR6calcSPEd
libqucs.so:_ZN6tff_SR6calcTREd
libqucs.so:_ZN6tff_SR6cirdefE
libqucs.so:_ZN6tff_SR6initACEv
libqucs.so:_ZN6tff_SR6initDCEv
libqucs.so:_ZN6tff_SR6initHBEi
libqucs.so:_ZN6tff_SR6initSPEv
libqucs.so:_ZN6tff_SR6initTREv
libqucs.so:_ZN6tff_SR9finalStepEv
libqucs.so:_ZN6tff_SR9initModelEv
libqucs.so:_ZN6tff_SR9restartDCEv
libqucs.so:_ZN6tff_SRC1Ev
libqucs.so:_ZN6tff_SRC2Ev
libqucs.so:_ZN6vnoise11calcNoiseACEd
libqucs.so:_ZN6vnoise11calcNoiseSPEd
libqucs.so:_ZN6vnoise6cirdefE
libqucs.so:_ZN6vnoise6initACEv
libqucs.so:_ZN6vnoise6initDCEv
libqucs.so:_ZN6vnoise6initSPEv
libqucs.so:_ZN6vnoise6initTREv
libqucs.so:_ZN6vnoiseC1Ev
libqucs.so:_ZN6vnoiseC2Ev
libqucs.so:_ZN6vprobe19saveOperatingPointsEv
libqucs.so:_ZN6vprobe6cirdefE
libqucs.so:_ZN6vprobe6initACEv
libqucs.so:_ZN6vprobe6initDCEv
libqucs.so:_ZN6vprobe6initSPEv
libqucs.so:_ZN6vprobe6initTREv
libqucs.so:_ZN6vprobeC1Ev
libqucs.so:_ZN6vprobeC2Ev
libqucs.so:_ZN6vpulse6calcTREd
libqucs.so:_ZN6vpulse6cirdefE
libqucs.so:_ZN6vpulse6initACEv
libqucs.so:_ZN6vpulse6initDCEv
libqucs.so:_ZN6vpulse6initSPEv
libqucs.so:_ZN6vpulse6initTREv
libqucs.so:_ZN6vpulseC1Ev
libqucs.so:_ZN6vpulseC2Ev
libqucs.so:_ZN7biastee6calcTREd
libqucs.so:_ZN7biastee6cirdefE
libqucs.so:_ZN7biastee6initACEv
libqucs.so:_ZN7biastee6initDCEv
libqucs.so:_ZN7biastee6initSPEv
libqucs.so:_ZN7biastee6initTREv
libqucs.so:_ZN7biasteeC1Ev
libqucs.so:_ZN7biasteeC2Ev
libqucs.so:_ZN7coupler6cirdefE
libqucs.so:_ZN7coupler6initACEv
libqucs.so:_ZN7coupler6initDCEv
libqucs.so:_ZN7coupler6initSPEv
libqucs.so:_ZN7coupler6initTREv
libqucs.so:_ZN7couplerC1Ev
libqucs.so:_ZN7couplerC2Ev
libqucs.so:_ZN7cpwline11calcNoiseACEd
libqucs.so:_ZN7cpwline11calcNoiseSPEd
libqucs.so:_ZN7cpwline15initPropagationEv
libqucs.so:_ZN7cpwline17analyseDispersionEdddddddRdS0_
libqucs.so:_ZN7cpwline18analyseQuasiStaticEdddddiRdS0_
libqucs.so:_ZN7cpwline19saveCharacteristicsEd
libqucs.so:_ZN7cpwline6calcABEdRdS0_S0_
libqucs.so:_ZN7cpwline6calcACEd
libqucs.so:_ZN7cpwline6calcSPEd
libqucs.so:_ZN7cpwline6cirdefE
libqucs.so:_ZN7cpwline6ellipaEd
libqucs.so:_ZN7cpwline6ellipkEd
libqucs.so:_ZN7cpwline6initACEv
libqucs.so:_ZN7cpwline6initDCEv
libqucs.so:_ZN7cpwline6initSPEv
libqucs.so:_ZN7cpwline6initTREv
libqucs.so:_ZN7cpwline7KoverKpEd
libqucs.so:_ZN7cpwlineC1Ev
libqucs.so:_ZN7cpwlineC2Ev
libqucs.so:_ZN7cpwopen15checkPropertiesEv
libqucs.so:_ZN7cpwopen5calcYEd
libqucs.so:_ZN7cpwopen6calcACEd
libqucs.so:_ZN7cpwopen6calcSPEd
libqucs.so:_ZN7cpwopen6cirdefE
libqucs.so:_ZN7cpwopen6initACEv
libqucs.so:_ZN7cpwopen6initDCEv
libqucs.so:_ZN7cpwopen6initSPEv
libqucs.so:_ZN7cpwopen8calcCendEd
libqucs.so:_ZN7cpwopenC1Ev
libqucs.so:_ZN7cpwopenC2Ev
libqucs.so:_ZN7cpwstep15checkPropertiesEv
libqucs.so:_ZN7cpwstep5calcYEd
libqucs.so:_ZN7cpwstep6calcACEd
libqucs.so:_ZN7cpwstep6calcSPEd
libqucs.so:_ZN7cpwstep6cirdefE
libqucs.so:_ZN7cpwstep6initACEv
libqucs.so:_ZN7cpwstep6initDCEv
libqucs.so:_ZN7cpwstep6initSPEv
libqucs.so:_ZN7cpwstep9calcCendsEdRdS0_
libqucs.so:_ZN7cpwstepC1Ev
libqucs.so:_ZN7cpwstepC2Ev
libqucs.so:_ZN7dcblock6calcTREd
libqucs.so:_ZN7dcblock6cirdefE
libqucs.so:_ZN7dcblock6initACEv
libqucs.so:_ZN7dcblock6initDCEv
libqucs.so:_ZN7dcblock6initSPEv
libqucs.so:_ZN7dcblock6initTREv
libqucs.so:_ZN7dcblockC1Ev
libqucs.so:_ZN7dcblockC2Ev
libqucs.so:_ZN7digital11freeDigitalEv
libqucs.so:_ZN7digital11initDigitalEv
libqucs.so:_ZN7digital12calcTransferEi
libqucs.so:_ZN7digital13calcTransferXEi
libqucs.so:_ZN7digital14calcDerivativeEi
libqucs.so:_ZN7digital15calcDerivativeXEi
libqucs.so:_ZN7digital19calcOperatingPointsEv
libqucs.so:_ZN7digital6calcACEd
libqucs.so:_ZN7digital6calcDCEv
libqucs.so:_ZN7digital6calcSPEd
libqucs.so:_ZN7digital6calcTREd
libqucs.so:_ZN7digital6getVinEi
libqucs.so:_ZN7digital6initACEv
libqucs.so:_ZN7digital6initDCEv
libqucs.so:_ZN7digital6initSPEv
libqucs.so:_ZN7digital6initTREv
libqucs.so:_ZN7digitalC1Ev
libqucs.so:_ZN7digitalC2Ev
libqucs.so:_ZN7digitalD0Ev
libqucs.so:_ZN7digitalD1Ev
libqucs.so:_ZN7digitalD2Ev
libqucs.so:_ZN7gyrator6cirdefE
libqucs.so:_ZN7gyrator6initACEv
libqucs.so:_ZN7gyrator6initDCEv
libqucs.so:_ZN7gyrator6initSPEv
libqucs.so:_ZN7gyrator6initTREv
libqucs.so:_ZN7gyratorC1Ev
libqucs.so:_ZN7gyratorC2Ev
libqucs.so:_ZN7iinoise11calcNoiseACEd
libqucs.so:_ZN7iinoise11calcNoiseSPEd
libqucs.so:_ZN7iinoise12calcMatrixCyEd
libqucs.so:_ZN7iinoise6cirdefE
libqucs.so:_ZN7iinoise6initSPEv
libqucs.so:_ZN7iinoiseC1Ev
libqucs.so:_ZN7iinoiseC2Ev
libqucs.so:_ZN7ivnoise11calcNoiseACEd
libqucs.so:_ZN7ivnoise11calcNoiseSPEd
libqucs.so:_ZN7ivnoise6cirdefE
libqucs.so:_ZN7ivnoise6initACEv
libqucs.so:_ZN7ivnoise6initDCEv
libqucs.so:_ZN7ivnoise6initSPEv
libqucs.so:_ZN7ivnoise6initTREv
libqucs.so:_ZN7ivnoiseC1Ev
libqucs.so:_ZN7ivnoiseC2Ev
libqucs.so:_ZN7jkff_SR11calcMatrixYEd
libqucs.so:_ZN7jkff_SR11calcNoiseACEd
libqucs.so:_ZN7jkff_SR11calcNoiseSPEd
libqucs.so:_ZN7jkff_SR11calcVerilogEv
libqucs.so:_ZN7jkff_SR11initVerilogEv
libqucs.so:_ZN7jkff_SR11initialStepEv
libqucs.so:_ZN7jkff_SR12calcMatrixCyEd
libqucs.so:_ZN7jkff_SR13loadVariablesEv
libqucs.so:_ZN7jkff_SR15initializeModelEv
libqucs.so:_ZN7jkff_SR18initializeInstanceEv
libqucs.so:_ZN7jkff_SR19calcOperatingPointsEv
libqucs.so:_ZN7jkff_SR19loadOperatingPointsEv
libqucs.so:_ZN7jkff_SR19saveOperatingPointsEv
libqucs.so:_ZN7jkff_SR6calcACEd
libqucs.so:_ZN7jkff_SR6calcDCEv
libqucs.so:_ZN7jkff_SR6calcHBEi
libqucs.so:_ZN7jkff_SR6calcSPEd
libqucs.so:_ZN7jkff_SR6calcTREd
libqucs.so:_ZN7jkff_SR6cirdefE
libqucs.so:_ZN7jkff_SR6initACEv
libqucs.so:_ZN7jkff_SR6initDCEv
libqucs.so:_ZN7jkff_SR6initHBEi
libqucs.so:_ZN7jkff_SR6initSPEv
libqucs.so:_ZN7jkff_SR6initTREv
libqucs.so:_ZN7jkff_SR9finalStepEv
libqucs.so:_ZN7jkff_SR9initModelEv
libqucs.so:_ZN7jkff_SR9restartDCEv
libqucs.so:_ZN7jkff_SRC1Ev
libqucs.so:_ZN7jkff_SRC2Ev
libqucs.so:_ZN7log_amp11calcMatrixYEd
libqucs.so:_ZN7log_amp11calcNoiseACEd
libqucs.so:_ZN7log_amp11calcNoiseSPEd
libqucs.so:_ZN7log_amp11calcVerilogEv
libqucs.so:_ZN7log_amp11initVerilogEv
libqucs.so:_ZN7log_amp11initialStepEv
libqucs.so:_ZN7log_amp12calcMatrixCyEd
libqucs.so:_ZN7log_amp13loadVariablesEv
libqucs.so:_ZN7log_amp15initializeModelEv
libqucs.so:_ZN7log_amp18initializeInstanceEv
libqucs.so:_ZN7log_amp19calcOperatingPointsEv
libqucs.so:_ZN7log_amp19loadOperatingPointsEv
libqucs.so:_ZN7log_amp19saveOperatingPointsEv
libqucs.so:_ZN7log_amp6calcACEd
libqucs.so:_ZN7log_amp6calcDCEv
libqucs.so:_ZN7log_amp6calcHBEi
libqucs.so:_ZN7log_amp6calcSPEd
libqucs.so:_ZN7log_amp6calcTREd
libqucs.so:_ZN7log_amp6cirdefE
libqucs.so:_ZN7log_amp6initACEv
libqucs.so:_ZN7log_amp6initDCEv
libqucs.so:_ZN7log_amp6initHBEi
libqucs.so:_ZN7log_amp6initSPEv
libqucs.so:_ZN7log_amp6initTREv
libqucs.so:_ZN7log_amp9finalStepEv
libqucs.so:_ZN7log_amp9initModelEv
libqucs.so:_ZN7log_amp9restartDCEv
libqucs.so:_ZN7log_ampC1Ev
libqucs.so:_ZN7log_ampC2Ev
libqucs.so:_ZN7logic_011calcMatrixYEd
libqucs.so:_ZN7logic_011calcNoiseACEd
libqucs.so:_ZN7logic_011calcNoiseSPEd
libqucs.so:_ZN7logic_011calcVerilogEv
libqucs.so:_ZN7logic_011initVerilogEv
libqucs.so:_ZN7logic_011initialStepEv
libqucs.so:_ZN7logic_012calcMatrixCyEd
libqucs.so:_ZN7logic_013loadVariablesEv
libqucs.so:_ZN7logic_015initializeModelEv
libqucs.so:_ZN7logic_018initializeInstanceEv
libqucs.so:_ZN7logic_019calcOperatingPointsEv
libqucs.so:_ZN7logic_019loadOperatingPointsEv
libqucs.so:_ZN7logic_019saveOperatingPointsEv
libqucs.so:_ZN7logic_06calcACEd
libqucs.so:_ZN7logic_06calcDCEv
libqucs.so:_ZN7logic_06calcHBEi
libqucs.so:_ZN7logic_06calcSPEd
libqucs.so:_ZN7logic_06calcTREd
libqucs.so:_ZN7logic_06cirdefE
libqucs.so:_ZN7logic_06initACEv
libqucs.so:_ZN7logic_06initDCEv
libqucs.so:_ZN7logic_06initHBEi
libqucs.so:_ZN7logic_06initSPEv
libqucs.so:_ZN7logic_06initTREv
libqucs.so:_ZN7logic_09finalStepEv
libqucs.so:_ZN7logic_09initModelEv
libqucs.so:_ZN7logic_09restartDCEv
libqucs.so:_ZN7logic_0C1Ev
libqucs.so:_ZN7logic_0C2Ev
libqucs.so:_ZN7logic_111calcMatrixYEd
libqucs.so:_ZN7logic_111calcNoiseACEd
libqucs.so:_ZN7logic_111calcNoiseSPEd
libqucs.so:_ZN7logic_111calcVerilogEv
libqucs.so:_ZN7logic_111initVerilogEv
libqucs.so:_ZN7logic_111initialStepEv
libqucs.so:_ZN7logic_112calcMatrixCyEd
libqucs.so:_ZN7logic_113loadVariablesEv
libqucs.so:_ZN7logic_115initializeModelEv
libqucs.so:_ZN7logic_118initializeInstanceEv
libqucs.so:_ZN7logic_119calcOperatingPointsEv
libqucs.so:_ZN7logic_119loadOperatingPointsEv
libqucs.so:_ZN7logic_119saveOperatingPointsEv
libqucs.so:_ZN7logic_16calcACEd
libqucs.so:_ZN7logic_16calcDCEv
libqucs.so:_ZN7logic_16calcHBEi
libqucs.so:_ZN7logic_16calcSPEd
libqucs.so:_ZN7logic_16calcTREd
libqucs.so:_ZN7logic_16cirdefE
libqucs.so:_ZN7logic_16initACEv
libqucs.so:_ZN7logic_16initDCEv
libqucs.so:_ZN7logic_16initHBEi
libqucs.so:_ZN7logic_16initSPEv
libqucs.so:_ZN7logic_16initTREv
libqucs.so:_ZN7logic_19finalStepEv
libqucs.so:_ZN7logic_19initModelEv
libqucs.so:_ZN7logic_19restartDCEv
libqucs.so:_ZN7logic_1C1Ev
libqucs.so:_ZN7logic_1C2Ev
libqucs.so:_ZN7logicor10calcOutputEv
libqucs.so:_ZN7logicor15calcDerivativesEv
libqucs.so:_ZN7logicor6cirdefE
libqucs.so:_ZN7logicorC1Ev
libqucs.so:_ZN7logicorC2Ev
libqucs.so:_ZN7mod_amp11calcMatrixYEd
libqucs.so:_ZN7mod_amp11calcNoiseACEd
libqucs.so:_ZN7mod_amp11calcNoiseSPEd
libqucs.so:_ZN7mod_amp11calcVerilogEv
libqucs.so:_ZN7mod_amp11initVerilogEv
libqucs.so:_ZN7mod_amp11initialStepEv
libqucs.so:_ZN7mod_amp12calcMatrixCyEd
libqucs.so:_ZN7mod_amp13loadVariablesEv
libqucs.so:_ZN7mod_amp15initializeModelEv
libqucs.so:_ZN7mod_amp18initializeInstanceEv
libqucs.so:_ZN7mod_amp19calcOperatingPointsEv
libqucs.so:_ZN7mod_amp19loadOperatingPointsEv
libqucs.so:_ZN7mod_amp19saveOperatingPointsEv
libqucs.so:_ZN7mod_amp6calcACEd
libqucs.so:_ZN7mod_amp6calcDCEv
libqucs.so:_ZN7mod_amp6calcHBEi
libqucs.so:_ZN7mod_amp6calcSPEd
libqucs.so:_ZN7mod_amp6calcTREd
libqucs.so:_ZN7mod_amp6cirdefE
libqucs.so:_ZN7mod_amp6initACEv
libqucs.so:_ZN7mod_amp6initDCEv
libqucs.so:_ZN7mod_amp6initHBEi
libqucs.so:_ZN7mod_amp6initSPEv
libqucs.so:_ZN7mod_amp6initTREv
libqucs.so:_ZN7mod_amp9finalStepEv
libqucs.so:_ZN7mod_amp9initModelEv
libqucs.so:_ZN7mod_amp9restartDCEv
libqucs.so:_ZN7mod_ampC1Ev
libqucs.so:_ZN7mod_ampC2Ev
libqucs.so:_ZN7mscross11calcMatrixYEd
libqucs.so:_ZN7mscross13capCorrectionEdd
libqucs.so:_ZN7mscross6calcACEd
libqucs.so:_ZN7mscross6calcSPEd
libqucs.so:_ZN7mscross6cirdefE
libqucs.so:_ZN7mscross6initACEv
libqucs.so:_ZN7mscross6initDCEv
libqucs.so:_ZN7mscross6initSPEv
libqucs.so:_ZN7mscross6initTREv
libqucs.so:_ZN7mscross7calcCapEddd
libqucs.so:_ZN7mscross7calcIndEddd
libqucs.so:_ZN7mscross9initModelEv
libqucs.so:_ZN7mscrossC1Ev
libqucs.so:_ZN7mscrossC2Ev
libqucs.so:_ZN7mslange11calcNoiseACEd
libqucs.so:_ZN7mslange11calcNoiseSPEd
libqucs.so:_ZN7mslange15calcPropagationEd
libqucs.so:_ZN7mslange17analysQuasiStaticEdddddPKcRdS2_S2_S2_
libqucs.so:_ZN7mslange17analyseDispersionEdddddddddPKcRdS2_S2_S2_
libqucs.so:_ZN7mslange19saveCharacteristicsEd
libqucs.so:_ZN7mslange6calcACEd
libqucs.so:_ZN7mslange6calcSPEd
libqucs.so:_ZN7mslange6cirdefE
libqucs.so:_ZN7mslange6initACEv
libqucs.so:_ZN7mslange6initDCEv
libqucs.so:_ZN7mslangeC1Ev
libqucs.so:_ZN7mslangeC2Ev
libqucs.so:_ZN7msmbend11calcMatrixZEd
libqucs.so:_ZN7msmbend6calcACEd
libqucs.so:_ZN7msmbend6calcSPEd
libqucs.so:_ZN7msmbend6cirdefE
libqucs.so:_ZN7msmbend6initACEv
libqucs.so:_ZN7msmbend6initDCEv
libqucs.so:_ZN7msmbendC1Ev
libqucs.so:_ZN7msmbendC2Ev
libqucs.so:_ZN7msrstub13calcReactanceEdddddd
libqucs.so:_ZN7msrstub5calcZEd
libqucs.so:_ZN7msrstub6calcACEd
libqucs.so:_ZN7msrstub6calcSPEd
libqucs.so:_ZN7msrstub6cirdefE
libqucs.so:_ZN7msrstub6initDCEv
libqucs.so:_ZN7msrstubC1Ev
libqucs.so:_ZN7msrstubC2Ev
libqucs.so:_ZN7mutual211calcMatrixYEd
libqucs.so:_ZN7mutual26calcACEd
libqucs.so:_ZN7mutual26calcSPEd
libqucs.so:_ZN7mutual26calcTREd
libqucs.so:_ZN7mutual26cirdefE
libqucs.so:_ZN7mutual26initACEv
libqucs.so:_ZN7mutual26initDCEv
libqucs.so:_ZN7mutual26initTREv
libqucs.so:_ZN7mutual2C1Ev
libqucs.so:_ZN7mutual2C2Ev
libqucs.so:_ZN7mutualx11calcMatrixYEd
libqucs.so:_ZN7mutualx11calcMatrixZEd
libqucs.so:_ZN7mutualx6calcACEd
libqucs.so:_ZN7mutualx6calcSPEd
libqucs.so:_ZN7mutualx6calcTREd
libqucs.so:_ZN7mutualx6cirdefE
libqucs.so:_ZN7mutualx6initACEv
libqucs.so:_ZN7mutualx6initDCEv
libqucs.so:_ZN7mutualx6initTREv
libqucs.so:_ZN7mutualxC1Ev
libqucs.so:_ZN7mutualxC2Ev
libqucs.so:_ZN7mux2to111calcMatrixYEd
libqucs.so:_ZN7mux2to111calcNoiseACEd
libqucs.so:_ZN7mux2to111calcNoiseSPEd
libqucs.so:_ZN7mux2to111calcVerilogEv
libqucs.so:_ZN7mux2to111initVerilogEv
libqucs.so:_ZN7mux2to111initialStepEv
libqucs.so:_ZN7mux2to112calcMatrixCyEd
libqucs.so:_ZN7mux2to113loadVariablesEv
libqucs.so:_ZN7mux2to115initializeModelEv
libqucs.so:_ZN7mux2to118initializeInstanceEv
libqucs.so:_ZN7mux2to119calcOperatingPointsEv
libqucs.so:_ZN7mux2to119loadOperatingPointsEv
libqucs.so:_ZN7mux2to119saveOperatingPointsEv
libqucs.so:_ZN7mux2to16calcACEd
libqucs.so:_ZN7mux2to16calcDCEv
libqucs.so:_ZN7mux2to16calcHBEi
libqucs.so:_ZN7mux2to16calcSPEd
libqucs.so:_ZN7mux2to16calcTREd
libqucs.so:_ZN7mux2to16cirdefE
libqucs.so:_ZN7mux2to16initACEv
libqucs.so:_ZN7mux2to16initDCEv
libqucs.so:_ZN7mux2to16initHBEi
libqucs.so:_ZN7mux2to16initSPEv
libqucs.so:_ZN7mux2to16initTREv
libqucs.so:_ZN7mux2to19finalStepEv
libqucs.so:_ZN7mux2to19initModelEv
libqucs.so:_ZN7mux2to19restartDCEv
libqucs.so:_ZN7mux2to1C1Ev
libqucs.so:_ZN7mux2to1C2Ev
libqucs.so:_ZN7mux4to111calcMatrixYEd
libqucs.so:_ZN7mux4to111calcNoiseACEd
libqucs.so:_ZN7mux4to111calcNoiseSPEd
libqucs.so:_ZN7mux4to111calcVerilogEv
libqucs.so:_ZN7mux4to111initVerilogEv
libqucs.so:_ZN7mux4to111initialStepEv
libqucs.so:_ZN7mux4to112calcMatrixCyEd
libqucs.so:_ZN7mux4to113loadVariablesEv
libqucs.so:_ZN7mux4to115initializeModelEv
libqucs.so:_ZN7mux4to118initializeInstanceEv
libqucs.so:_ZN7mux4to119calcOperatingPointsEv
libqucs.so:_ZN7mux4to119loadOperatingPointsEv
libqucs.so:_ZN7mux4to119saveOperatingPointsEv
libqucs.so:_ZN7mux4to16calcACEd
libqucs.so:_ZN7mux4to16calcDCEv
libqucs.so:_ZN7mux4to16calcHBEi
libqucs.so:_ZN7mux4to16calcSPEd
libqucs.so:_ZN7mux4to16calcTREd
libqucs.so:_ZN7mux4to16cirdefE
libqucs.so:_ZN7mux4to16initACEv
libqucs.so:_ZN7mux4to16initDCEv
libqucs.so:_ZN7mux4to16initHBEi
libqucs.so:_ZN7mux4to16initSPEv
libqucs.so:_ZN7mux4to16initTREv
libqucs.so:_ZN7mux4to19finalStepEv
libqucs.so:_ZN7mux4to19initModelEv
libqucs.so:_ZN7mux4to19restartDCEv
libqucs.so:_ZN7mux4to1C1Ev
libqucs.so:_ZN7mux4to1C2Ev
libqucs.so:_ZN7mux8to111calcMatrixYEd
libqucs.so:_ZN7mux8to111calcNoiseACEd
libqucs.so:_ZN7mux8to111calcNoiseSPEd
libqucs.so:_ZN7mux8to111calcVerilogEv
libqucs.so:_ZN7mux8to111initVerilogEv
libqucs.so:_ZN7mux8to111initialStepEv
libqucs.so:_ZN7mux8to112calcMatrixCyEd
libqucs.so:_ZN7mux8to113loadVariablesEv
libqucs.so:_ZN7mux8to115initializeModelEv
libqucs.so:_ZN7mux8to118initializeInstanceEv
libqucs.so:_ZN7mux8to119calcOperatingPointsEv
libqucs.so:_ZN7mux8to119loadOperatingPointsEv
libqucs.so:_ZN7mux8to119saveOperatingPointsEv
libqucs.so:_ZN7mux8to16calcACEd
libqucs.so:_ZN7mux8to16calcDCEv
libqucs.so:_ZN7mux8to16calcHBEi
libqucs.so:_ZN7mux8to16calcSPEd
libqucs.so:_ZN7mux8to16calcTREd
libqucs.so:_ZN7mux8to16cirdefE
libqucs.so:_ZN7mux8to16initACEv
libqucs.so:_ZN7mux8to16initDCEv
libqucs.so:_ZN7mux8to16initHBEi
libqucs.so:_ZN7mux8to16initSPEv
libqucs.so:_ZN7mux8to16initTREv
libqucs.so:_ZN7mux8to19finalStepEv
libqucs.so:_ZN7mux8to19initModelEv
libqucs.so:_ZN7mux8to19restartDCEv
libqucs.so:_ZN7mux8to1C1Ev
libqucs.so:_ZN7mux8to1C2Ev
libqucs.so:_ZN7pad2bit11calcMatrixYEd
libqucs.so:_ZN7pad2bit11calcNoiseACEd
libqucs.so:_ZN7pad2bit11calcNoiseSPEd
libqucs.so:_ZN7pad2bit11calcVerilogEv
libqucs.so:_ZN7pad2bit11initVerilogEv
libqucs.so:_ZN7pad2bit11initialStepEv
libqucs.so:_ZN7pad2bit12calcMatrixCyEd
libqucs.so:_ZN7pad2bit13loadVariablesEv
libqucs.so:_ZN7pad2bit15initializeModelEv
libqucs.so:_ZN7pad2bit18initializeInstanceEv
libqucs.so:_ZN7pad2bit19calcOperatingPointsEv
libqucs.so:_ZN7pad2bit19loadOperatingPointsEv
libqucs.so:_ZN7pad2bit19saveOperatingPointsEv
libqucs.so:_ZN7pad2bit6calcACEd
libqucs.so:_ZN7pad2bit6calcDCEv
libqucs.so:_ZN7pad2bit6calcHBEi
libqucs.so:_ZN7pad2bit6calcSPEd
libqucs.so:_ZN7pad2bit6calcTREd
libqucs.so:_ZN7pad2bit6cirdefE
libqucs.so:_ZN7pad2bit6initACEv
libqucs.so:_ZN7pad2bit6initDCEv
libqucs.so:_ZN7pad2bit6initHBEi
libqucs.so:_ZN7pad2bit6initSPEv
libqucs.so:_ZN7pad2bit6initTREv
libqucs.so:_ZN7pad2bit9finalStepEv
libqucs.so:_ZN7pad2bit9initModelEv
libqucs.so:_ZN7pad2bit9restartDCEv
libqucs.so:_ZN7pad2bitC1Ev
libqucs.so:_ZN7pad2bitC2Ev
libqucs.so:_ZN7pad3bit11calcMatrixYEd
libqucs.so:_ZN7pad3bit11calcNoiseACEd
libqucs.so:_ZN7pad3bit11calcNoiseSPEd
libqucs.so:_ZN7pad3bit11calcVerilogEv
libqucs.so:_ZN7pad3bit11initVerilogEv
libqucs.so:_ZN7pad3bit11initialStepEv
libqucs.so:_ZN7pad3bit12calcMatrixCyEd
libqucs.so:_ZN7pad3bit13loadVariablesEv
libqucs.so:_ZN7pad3bit15initializeModelEv
libqucs.so:_ZN7pad3bit18initializeInstanceEv
libqucs.so:_ZN7pad3bit19calcOperatingPointsEv
libqucs.so:_ZN7pad3bit19loadOperatingPointsEv
libqucs.so:_ZN7pad3bit19saveOperatingPointsEv
libqucs.so:_ZN7pad3bit6calcACEd
libqucs.so:_ZN7pad3bit6calcDCEv
libqucs.so:_ZN7pad3bit6calcHBEi
libqucs.so:_ZN7pad3bit6calcSPEd
libqucs.so:_ZN7pad3bit6calcTREd
libqucs.so:_ZN7pad3bit6cirdefE
libqucs.so:_ZN7pad3bit6initACEv
libqucs.so:_ZN7pad3bit6initDCEv
libqucs.so:_ZN7pad3bit6initHBEi
libqucs.so:_ZN7pad3bit6initSPEv
libqucs.so:_ZN7pad3bit6initTREv
libqucs.so:_ZN7pad3bit9finalStepEv
libqucs.so:_ZN7pad3bit9initModelEv
libqucs.so:_ZN7pad3bit9restartDCEv
libqucs.so:_ZN7pad3bitC1Ev
libqucs.so:_ZN7pad3bitC2Ev
libqucs.so:_ZN7pad4bit11calcMatrixYEd
libqucs.so:_ZN7pad4bit11calcNoiseACEd
libqucs.so:_ZN7pad4bit11calcNoiseSPEd
libqucs.so:_ZN7pad4bit11calcVerilogEv
libqucs.so:_ZN7pad4bit11initVerilogEv
libqucs.so:_ZN7pad4bit11initialStepEv
libqucs.so:_ZN7pad4bit12calcMatrixCyEd
libqucs.so:_ZN7pad4bit13loadVariablesEv
libqucs.so:_ZN7pad4bit15initializeModelEv
libqucs.so:_ZN7pad4bit18initializeInstanceEv
libqucs.so:_ZN7pad4bit19calcOperatingPointsEv
libqucs.so:_ZN7pad4bit19loadOperatingPointsEv
libqucs.so:_ZN7pad4bit19saveOperatingPointsEv
libqucs.so:_ZN7pad4bit6calcACEd
libqucs.so:_ZN7pad4bit6calcDCEv
libqucs.so:_ZN7pad4bit6calcHBEi
libqucs.so:_ZN7pad4bit6calcSPEd
libqucs.so:_ZN7pad4bit6calcTREd
libqucs.so:_ZN7pad4bit6cirdefE
libqucs.so:_ZN7pad4bit6initACEv
libqucs.so:_ZN7pad4bit6initDCEv
libqucs.so:_ZN7pad4bit6initHBEi
libqucs.so:_ZN7pad4bit6initSPEv
libqucs.so:_ZN7pad4bit6initTREv
libqucs.so:_ZN7pad4bit9finalStepEv
libqucs.so:_ZN7pad4bit9initModelEv
libqucs.so:_ZN7pad4bit9restartDCEv
libqucs.so:_ZN7pad4bitC1Ev
libqucs.so:_ZN7pad4bitC2Ev
libqucs.so:_ZN7tline4p11calcNoiseACEd
libqucs.so:_ZN7tline4p11calcNoiseSPEd
libqucs.so:_ZN7tline4p6calcACEd
libqucs.so:_ZN7tline4p6calcSPEd
libqucs.so:_ZN7tline4p6calcTREd
libqucs.so:_ZN7tline4p6cirdefE
libqucs.so:_ZN7tline4p6initACEv
libqucs.so:_ZN7tline4p6initDCEv
libqucs.so:_ZN7tline4p6initTREv
libqucs.so:_ZN7tline4pC1Ev
libqucs.so:_ZN7tline4pC2Ev
libqucs.so:_ZN7tswitch11calcNoiseACEd
libqucs.so:_ZN7tswitch11calcNoiseSPEd
libqucs.so:_ZN7tswitch6calcTREd
libqucs.so:_ZN7tswitch6cirdefE
libqucs.so:_ZN7tswitch6initACEv
libqucs.so:_ZN7tswitch6initDCEv
libqucs.so:_ZN7tswitch6initSPEv
libqucs.so:_ZN7tswitch6initTREv
libqucs.so:_ZN7tswitch9initStateEv
libqucs.so:_ZN7tswitchC1Ev
libqucs.so:_ZN7tswitchC2Ev
libqucs.so:_ZN7vvnoise11calcNoiseACEd
libqucs.so:_ZN7vvnoise11calcNoiseSPEd
libqucs.so:_ZN7vvnoise6cirdefE
libqucs.so:_ZN7vvnoise6initACEv
libqucs.so:_ZN7vvnoise6initDCEv
libqucs.so:_ZN7vvnoise6initSPEv
libqucs.so:_ZN7vvnoise6initTREv
libqucs.so:_ZN7vvnoiseC1Ev
libqucs.so:_ZN7vvnoiseC2Ev
libqucs.so:_ZN8DLS_1ton11calcMatrixYEd
libqucs.so:_ZN8DLS_1ton11calcNoiseACEd
libqucs.so:_ZN8DLS_1ton11calcNoiseSPEd
libqucs.so:_ZN8DLS_1ton11calcVerilogEv
libqucs.so:_ZN8DLS_1ton11initVerilogEv
libqucs.so:_ZN8DLS_1ton11initialStepEv
libqucs.so:_ZN8DLS_1ton12calcMatrixCyEd
libqucs.so:_ZN8DLS_1ton13loadVariablesEv
libqucs.so:_ZN8DLS_1ton15initializeModelEv
libqucs.so:_ZN8DLS_1ton18initializeInstanceEv
libqucs.so:_ZN8DLS_1ton19calcOperatingPointsEv
libqucs.so:_ZN8DLS_1ton19loadOperatingPointsEv
libqucs.so:_ZN8DLS_1ton19saveOperatingPointsEv
libqucs.so:_ZN8DLS_1ton6calcACEd
libqucs.so:_ZN8DLS_1ton6calcDCEv
libqucs.so:_ZN8DLS_1ton6calcHBEi
libqucs.so:_ZN8DLS_1ton6calcSPEd
libqucs.so:_ZN8DLS_1ton6calcTREd
libqucs.so:_ZN8DLS_1ton6cirdefE
libqucs.so:_ZN8DLS_1ton6initACEv
libqucs.so:_ZN8DLS_1ton6initDCEv
libqucs.so:_ZN8DLS_1ton6initHBEi
libqucs.so:_ZN8DLS_1ton6initSPEv
libqucs.so:_ZN8DLS_1ton6initTREv
libqucs.so:_ZN8DLS_1ton9finalStepEv
libqucs.so:_ZN8DLS_1ton9initModelEv
libqucs.so:_ZN8DLS_1ton9restartDCEv
libqucs.so:_ZN8DLS_1tonC1Ev
libqucs.so:_ZN8DLS_1tonC2Ev
libqucs.so:_ZN8DLS_nto111calcMatrixYEd
libqucs.so:_ZN8DLS_nto111calcNoiseACEd
libqucs.so:_ZN8DLS_nto111calcNoiseSPEd
libqucs.so:_ZN8DLS_nto111calcVerilogEv
libqucs.so:_ZN8DLS_nto111initVerilogEv
libqucs.so:_ZN8DLS_nto111initialStepEv
libqucs.so:_ZN8DLS_nto112calcMatrixCyEd
libqucs.so:_ZN8DLS_nto113loadVariablesEv
libqucs.so:_ZN8DLS_nto115initializeModelEv
libqucs.so:_ZN8DLS_nto118initializeInstanceEv
libqucs.so:_ZN8DLS_nto119calcOperatingPointsEv
libqucs.so:_ZN8DLS_nto119loadOperatingPointsEv
libqucs.so:_ZN8DLS_nto119saveOperatingPointsEv
libqucs.so:_ZN8DLS_nto16calcACEd
libqucs.so:_ZN8DLS_nto16calcDCEv
libqucs.so:_ZN8DLS_nto16calcHBEi
libqucs.so:_ZN8DLS_nto16calcSPEd
libqucs.so:_ZN8DLS_nto16calcTREd
libqucs.so:_ZN8DLS_nto16cirdefE
libqucs.so:_ZN8DLS_nto16initACEv
libqucs.so:_ZN8DLS_nto16initDCEv
libqucs.so:_ZN8DLS_nto16initHBEi
libqucs.so:_ZN8DLS_nto16initSPEv
libqucs.so:_ZN8DLS_nto16initTREv
libqucs.so:_ZN8DLS_nto19finalStepEv
libqucs.so:_ZN8DLS_nto19initModelEv
libqucs.so:_ZN8DLS_nto19restartDCEv
libqucs.so:_ZN8DLS_nto1C1Ev
libqucs.so:_ZN8DLS_nto1C2Ev
libqucs.so:_ZN8EKV26MOS11calcMatrixYEd
libqucs.so:_ZN8EKV26MOS11calcNoiseACEd
libqucs.so:_ZN8EKV26MOS11calcNoiseSPEd
libqucs.so:_ZN8EKV26MOS11calcVerilogEv
libqucs.so:_ZN8EKV26MOS11initVerilogEv
libqucs.so:_ZN8EKV26MOS11initialStepEv
libqucs.so:_ZN8EKV26MOS12calcMatrixCyEd
libqucs.so:_ZN8EKV26MOS13loadVariablesEv
libqucs.so:_ZN8EKV26MOS15initializeModelEv
libqucs.so:_ZN8EKV26MOS18initializeInstanceEv
libqucs.so:_ZN8EKV26MOS19calcOperatingPointsEv
libqucs.so:_ZN8EKV26MOS19loadOperatingPointsEv
libqucs.so:_ZN8EKV26MOS19saveOperatingPointsEv
libqucs.so:_ZN8EKV26MOS6calcACEd
libqucs.so:_ZN8EKV26MOS6calcDCEv
libqucs.so:_ZN8EKV26MOS6calcHBEi
libqucs.so:_ZN8EKV26MOS6calcSPEd
libqucs.so:_ZN8EKV26MOS6calcTREd
libqucs.so:_ZN8EKV26MOS6cirdefE
libqucs.so:_ZN8EKV26MOS6initACEv
libqucs.so:_ZN8EKV26MOS6initDCEv
libqucs.so:_ZN8EKV26MOS6initHBEi
libqucs.so:_ZN8EKV26MOS6initSPEv
libqucs.so:_ZN8EKV26MOS6initTREv
libqucs.so:_ZN8EKV26MOS9finalStepEv
libqucs.so:_ZN8EKV26MOS9initModelEv
libqucs.so:_ZN8EKV26MOS9restartDCEv
libqucs.so:_ZN8EKV26MOSC1Ev
libqucs.so:_ZN8EKV26MOSC2Ev
libqucs.so:_ZN8andor4x211calcMatrixYEd
libqucs.so:_ZN8andor4x211calcNoiseACEd
libqucs.so:_ZN8andor4x211calcNoiseSPEd
libqucs.so:_ZN8andor4x211calcVerilogEv
libqucs.so:_ZN8andor4x211initVerilogEv
libqucs.so:_ZN8andor4x211initialStepEv
libqucs.so:_ZN8andor4x212calcMatrixCyEd
libqucs.so:_ZN8andor4x213loadVariablesEv
libqucs.so:_ZN8andor4x215initializeModelEv
libqucs.so:_ZN8andor4x218initializeInstanceEv
libqucs.so:_ZN8andor4x219calcOperatingPointsEv
libqucs.so:_ZN8andor4x219loadOperatingPointsEv
libqucs.so:_ZN8andor4x219saveOperatingPointsEv
libqucs.so:_ZN8andor4x26calcACEd
libqucs.so:_ZN8andor4x26calcDCEv
libqucs.so:_ZN8andor4x26calcHBEi
libqucs.so:_ZN8andor4x26calcSPEd
libqucs.so:_ZN8andor4x26calcTREd
libqucs.so:_ZN8andor4x26cirdefE
libqucs.so:_ZN8andor4x26initACEv
libqucs.so:_ZN8andor4x26initDCEv
libqucs.so:_ZN8andor4x26initHBEi
libqucs.so:_ZN8andor4x26initSPEv
libqucs.so:_ZN8andor4x26initTREv
libqucs.so:_ZN8andor4x29finalStepEv
libqucs.so:_ZN8andor4x29initModelEv
libqucs.so:_ZN8andor4x29restartDCEv
libqucs.so:_ZN8andor4x2C1Ev
libqucs.so:_ZN8andor4x2C2Ev
libqucs.so:_ZN8andor4x311calcMatrixYEd
libqucs.so:_ZN8andor4x311calcNoiseACEd
libqucs.so:_ZN8andor4x311calcNoiseSPEd
libqucs.so:_ZN8andor4x311calcVerilogEv
libqucs.so:_ZN8andor4x311initVerilogEv
libqucs.so:_ZN8andor4x311initialStepEv
libqucs.so:_ZN8andor4x312calcMatrixCyEd
libqucs.so:_ZN8andor4x313loadVariablesEv
libqucs.so:_ZN8andor4x315initializeModelEv
libqucs.so:_ZN8andor4x318initializeInstanceEv
libqucs.so:_ZN8andor4x319calcOperatingPointsEv
libqucs.so:_ZN8andor4x319loadOperatingPointsEv
libqucs.so:_ZN8andor4x319saveOperatingPointsEv
libqucs.so:_ZN8andor4x36calcACEd
libqucs.so:_ZN8andor4x36calcDCEv
libqucs.so:_ZN8andor4x36calcHBEi
libqucs.so:_ZN8andor4x36calcSPEd
libqucs.so:_ZN8andor4x36calcTREd
libqucs.so:_ZN8andor4x36cirdefE
libqucs.so:_ZN8andor4x36initACEv
libqucs.so:_ZN8andor4x36initDCEv
libqucs.so:_ZN8andor4x36initHBEi
libqucs.so:_ZN8andor4x36initSPEv
libqucs.so:_ZN8andor4x36initTREv
libqucs.so:_ZN8andor4x39finalStepEv
libqucs.so:_ZN8andor4x39initModelEv
libqucs.so:_ZN8andor4x39restartDCEv
libqucs.so:_ZN8andor4x3C1Ev
libqucs.so:_ZN8andor4x3C2Ev
libqucs.so:_ZN8andor4x411calcMatrixYEd
libqucs.so:_ZN8andor4x411calcNoiseACEd
libqucs.so:_ZN8andor4x411calcNoiseSPEd
libqucs.so:_ZN8andor4x411calcVerilogEv
libqucs.so:_ZN8andor4x411initVerilogEv
libqucs.so:_ZN8andor4x411initialStepEv
libqucs.so:_ZN8andor4x412calcMatrixCyEd
libqucs.so:_ZN8andor4x413loadVariablesEv
libqucs.so:_ZN8andor4x415initializeModelEv
libqucs.so:_ZN8andor4x418initializeInstanceEv
libqucs.so:_ZN8andor4x419calcOperatingPointsEv
libqucs.so:_ZN8andor4x419loadOperatingPointsEv
libqucs.so:_ZN8andor4x419saveOperatingPointsEv
libqucs.so:_ZN8andor4x46calcACEd
libqucs.so:_ZN8andor4x46calcDCEv
libqucs.so:_ZN8andor4x46calcHBEi
libqucs.so:_ZN8andor4x46calcSPEd
libqucs.so:_ZN8andor4x46calcTREd
libqucs.so:_ZN8andor4x46cirdefE
libqucs.so:_ZN8andor4x46initACEv
libqucs.so:_ZN8andor4x46initDCEv
libqucs.so:_ZN8andor4x46initHBEi
libqucs.so:_ZN8andor4x46initSPEv
libqucs.so:_ZN8andor4x46initTREv
libqucs.so:_ZN8andor4x49finalStepEv
libqucs.so:_ZN8andor4x49initModelEv
libqucs.so:_ZN8andor4x49restartDCEv
libqucs.so:_ZN8andor4x4C1Ev
libqucs.so:_ZN8andor4x4C2Ev
libqucs.so:_ZN8bondwire11calcMatrixYEd
libqucs.so:_ZN8bondwire11calcNoiseACEd
libqucs.so:_ZN8bondwire11calcNoiseSPEd
libqucs.so:_ZN8bondwire13getPropertiesEv
libqucs.so:_ZN8bondwire19saveCharacteristicsEd
libqucs.so:_ZN8bondwire6calcACEd
libqucs.so:_ZN8bondwire6calcSPEd
libqucs.so:_ZN8bondwire6cirdefE
libqucs.so:_ZN8bondwire6initACEv
libqucs.so:_ZN8bondwire6initDCEv
libqucs.so:_ZN8bondwire6initSPEv
libqucs.so:_ZN8bondwireC1Ev
libqucs.so:_ZN8bondwireC2Ev
libqucs.so:_ZN8coaxline11calcNoiseACEd
libqucs.so:_ZN8coaxline11calcNoiseSPEd
libqucs.so:_ZN8coaxline15calcPropagationEd
libqucs.so:_ZN8coaxline19saveCharacteristicsEd
libqucs.so:_ZN8coaxline6calcACEd
libqucs.so:_ZN8coaxline6calcSPEd
libqucs.so:_ZN8coaxline6cirdefE
libqucs.so:_ZN8coaxline6initACEv
libqucs.so:_ZN8coaxline6initDCEv
libqucs.so:_ZN8coaxline6initSPEv
libqucs.so:_ZN8coaxline9initCheckEv
libqucs.so:_ZN8coaxlineC1Ev
libqucs.so:_ZN8coaxlineC2Ev
libqucs.so:_ZN8cpwshort15checkPropertiesEv
libqucs.so:_ZN8cpwshort5calcZEd
libqucs.so:_ZN8cpwshort6calcACEd
libqucs.so:_ZN8cpwshort6calcSPEd
libqucs.so:_ZN8cpwshort6cirdefE
libqucs.so:_ZN8cpwshort6initACEv
libqucs.so:_ZN8cpwshort6initDCEv
libqucs.so:_ZN8cpwshort6initSPEv
libqucs.so:_ZN8cpwshort8calcLendEd
libqucs.so:_ZN8cpwshortC1Ev
libqucs.so:_ZN8cpwshortC2Ev
libqucs.so:_ZN8dmux2to411calcMatrixYEd
libqucs.so:_ZN8dmux2to411calcNoiseACEd
libqucs.so:_ZN8dmux2to411calcNoiseSPEd
libqucs.so:_ZN8dmux2to411calcVerilogEv
libqucs.so:_ZN8dmux2to411initVerilogEv
libqucs.so:_ZN8dmux2to411initialStepEv
libqucs.so:_ZN8dmux2to412calcMatrixCyEd
libqucs.so:_ZN8dmux2to413loadVariablesEv
libqucs.so:_ZN8dmux2to415initializeModelEv
libqucs.so:_ZN8dmux2to418initializeInstanceEv
libqucs.so:_ZN8dmux2to419calcOperatingPointsEv
libqucs.so:_ZN8dmux2to419loadOperatingPointsEv
libqucs.so:_ZN8dmux2to419saveOperatingPointsEv
libqucs.so:_ZN8dmux2to46calcACEd
libqucs.so:_ZN8dmux2to46calcDCEv
libqucs.so:_ZN8dmux2to46calcHBEi
libqucs.so:_ZN8dmux2to46calcSPEd
libqucs.so:_ZN8dmux2to46calcTREd
libqucs.so:_ZN8dmux2to46cirdefE
libqucs.so:_ZN8dmux2to46initACEv
libqucs.so:_ZN8dmux2to46initDCEv
libqucs.so:_ZN8dmux2to46initHBEi
libqucs.so:_ZN8dmux2to46initSPEv
libqucs.so:_ZN8dmux2to46initTREv
libqucs.so:_ZN8dmux2to49finalStepEv
libqucs.so:_ZN8dmux2to49initModelEv
libqucs.so:_ZN8dmux2to49restartDCEv
libqucs.so:_ZN8dmux2to4C1Ev
libqucs.so:_ZN8dmux2to4C2Ev
libqucs.so:_ZN8dmux3to811calcMatrixYEd
libqucs.so:_ZN8dmux3to811calcNoiseACEd
libqucs.so:_ZN8dmux3to811calcNoiseSPEd
libqucs.so:_ZN8dmux3to811calcVerilogEv
libqucs.so:_ZN8dmux3to811initVerilogEv
libqucs.so:_ZN8dmux3to811initialStepEv
libqucs.so:_ZN8dmux3to812calcMatrixCyEd
libqucs.so:_ZN8dmux3to813loadVariablesEv
libqucs.so:_ZN8dmux3to815initializeModelEv
libqucs.so:_ZN8dmux3to818initializeInstanceEv
libqucs.so:_ZN8dmux3to819calcOperatingPointsEv
libqucs.so:_ZN8dmux3to819loadOperatingPointsEv
libqucs.so:_ZN8dmux3to819saveOperatingPointsEv
libqucs.so:_ZN8dmux3to86calcACEd
libqucs.so:_ZN8dmux3to86calcDCEv
libqucs.so:_ZN8dmux3to86calcHBEi
libqucs.so:_ZN8dmux3to86calcSPEd
libqucs.so:_ZN8dmux3to86calcTREd
libqucs.so:_ZN8dmux3to86cirdefE
libqucs.so:_ZN8dmux3to86initACEv
libqucs.so:_ZN8dmux3to86initDCEv
libqucs.so:_ZN8dmux3to86initHBEi
libqucs.so:_ZN8dmux3to86initSPEv
libqucs.so:_ZN8dmux3to86initTREv
libqucs.so:_ZN8dmux3to89finalStepEv
libqucs.so:_ZN8dmux3to89initModelEv
libqucs.so:_ZN8dmux3to89restartDCEv
libqucs.so:_ZN8dmux3to8C1Ev
libqucs.so:_ZN8dmux3to8C2Ev
libqucs.so:_ZN8fspecial12ellip_sncndnEddRdS0_S0_
libqucs.so:_ZN8fspecial2i0Ed
libqucs.so:_ZN8fspecial3erfEd
libqucs.so:_ZN8fspecial4erfcEd
libqucs.so:_ZN8fspecial6erfinvEd
libqucs.so:_ZN8fspecial7erfcinvEd
libqucs.so:_ZN8fspecial7ltqnormEd
libqucs.so:_ZN8fspecial8ellip_keEdRdS0_
libqucs.so:_ZN8fspecial8ellip_rfEddd
libqucs.so:_ZN8inductor6calcACEd
libqucs.so:_ZN8inductor6calcDCEv
libqucs.so:_ZN8inductor6calcHBEd
libqucs.so:_ZN8inductor6calcSPEd
libqucs.so:_ZN8inductor6calcTREd
libqucs.so:_ZN8inductor6cirdefE
libqucs.so:_ZN8inductor6initACEv
libqucs.so:_ZN8inductor6initDCEv
libqucs.so:_ZN8inductor6initHBEv
libqucs.so:_ZN8inductor6initTREv
libqucs.so:_ZN8inductorC1Ev
libqucs.so:_ZN8inductorC2Ev
libqucs.so:_ZN8inverter10calcOutputEv
libqucs.so:_ZN8inverter15calcDerivativesEv
libqucs.so:_ZN8inverter6cirdefE
libqucs.so:_ZN8inverterC1Ev
libqucs.so:_ZN8inverterC2Ev
libqucs.so:_ZN8isolator11calcNoiseACEd
libqucs.so:_ZN8isolator11calcNoiseSPEd
libqucs.so:_ZN8isolator6cirdefE
libqucs.so:_ZN8isolator6initACEv
libqucs.so:_ZN8isolator6initDCEv
libqucs.so:_ZN8isolator6initSPEv
libqucs.so:_ZN8isolator6initTREv
libqucs.so:_ZN8isolatorC1Ev
libqucs.so:_ZN8isolatorC2Ev
libqucs.so:_ZN8logicand10calcOutputEv
libqucs.so:_ZN8logicand15calcDerivativesEv
libqucs.so:_ZN8logicand6cirdefE
libqucs.so:_ZN8logicandC1Ev
libqucs.so:_ZN8logicandC2Ev
libqucs.so:_ZN8logicnor10calcOutputEv
libqucs.so:_ZN8logicnor15calcDerivativesEv
libqucs.so:_ZN8logicnor6cirdefE
libqucs.so:_ZN8logicnorC1Ev
libqucs.so:_ZN8logicnorC2Ev
libqucs.so:_ZN8logicxor10calcOutputEv
libqucs.so:_ZN8logicxor15calcDerivativesEv
libqucs.so:_ZN8logicxor6cirdefE
libqucs.so:_ZN8logicxorC1Ev
libqucs.so:_ZN8logicxorC2Ev
libqucs.so:_ZN8mscorner11calcMatrixZEd
libqucs.so:_ZN8mscorner6calcACEd
libqucs.so:_ZN8mscorner6calcSPEd
libqucs.so:_ZN8mscorner6cirdefE
libqucs.so:_ZN8mscorner6initACEv
libqucs.so:_ZN8mscorner6initDCEv
libqucs.so:_ZN8mscorner6initSPEv
libqucs.so:_ZN8mscorner9initCheckEv
libqucs.so:_ZN8mscornerC1Ev
libqucs.so:_ZN8mscornerC2Ev
libqucs.so:_ZN8rectline11calcNoiseACEd
libqucs.so:_ZN8rectline11calcNoiseSPEd
libqucs.so:_ZN8rectline15calcPropagationEd
libqucs.so:_ZN8rectline15calcResistivityEPKcd
libqucs.so:_ZN8rectline19saveCharacteristicsESt7complexIdE
libqucs.so:_ZN8rectline6calcACEd
libqucs.so:_ZN8rectline6calcSPEd
libqucs.so:_ZN8rectline6cirdefE
libqucs.so:_ZN8rectline6initACEv
libqucs.so:_ZN8rectline6initDCEv
libqucs.so:_ZN8rectline6initSPEv
libqucs.so:_ZN8rectline9initCheckEv
libqucs.so:_ZN8rectlineC1Ev
libqucs.so:_ZN8rectlineC2Ev
libqucs.so:_ZN8resistor11calcNoiseACEd
libqucs.so:_ZN8resistor11calcNoiseSPEd
libqucs.so:_ZN8resistor6calcACEd
libqucs.so:_ZN8resistor6calcDCEv
libqucs.so:_ZN8resistor6calcSPEd
libqucs.so:_ZN8resistor6calcTREd
libqucs.so:_ZN8resistor6cirdefE
libqucs.so:_ZN8resistor6initACEv
libqucs.so:_ZN8resistor6initDCEv
libqucs.so:_ZN8resistor6initHBEv
libqucs.so:_ZN8resistor6initSPEv
libqucs.so:_ZN8resistor6initTREv
libqucs.so:_ZN8resistor9initModelEv
libqucs.so:_ZN8resistorC1Ev
libqucs.so:_ZN8resistorC2Ev
libqucs.so:_ZN9amplifier11calcNoiseACEd
libqucs.so:_ZN9amplifier11calcNoiseSPEd
libqucs.so:_ZN9amplifier6cirdefE
libqucs.so:_ZN9amplifier6initACEv
libqucs.so:_ZN9amplifier6initDCEv
libqucs.so:_ZN9amplifier6initSPEv
libqucs.so:_ZN9amplifier6initTREv
libqucs.so:_ZN9amplifierC1Ev
libqucs.so:_ZN9amplifierC2Ev
libqucs.so:_ZN9capacitor6calcACEd
libqucs.so:_ZN9capacitor6calcHBEd
libqucs.so:_ZN9capacitor6calcSPEd
libqucs.so:_ZN9capacitor6calcTREd
libqucs.so:_ZN9capacitor6cirdefE
libqucs.so:_ZN9capacitor6initACEv
libqucs.so:_ZN9capacitor6initDCEv
libqucs.so:_ZN9capacitor6initHBEv
libqucs.so:_ZN9capacitor6initTREv
libqucs.so:_ZN9capacitorC1Ev
libqucs.so:_ZN9capacitorC2Ev
libqucs.so:_ZN9comp_1bit11calcMatrixYEd
libqucs.so:_ZN9comp_1bit11calcNoiseACEd
libqucs.so:_ZN9comp_1bit11calcNoiseSPEd
libqucs.so:_ZN9comp_1bit11calcVerilogEv
libqucs.so:_ZN9comp_1bit11initVerilogEv
libqucs.so:_ZN9comp_1bit11initialStepEv
libqucs.so:_ZN9comp_1bit12calcMatrixCyEd
libqucs.so:_ZN9comp_1bit13loadVariablesEv
libqucs.so:_ZN9comp_1bit15initializeModelEv
libqucs.so:_ZN9comp_1bit18initializeInstanceEv
libqucs.so:_ZN9comp_1bit19calcOperatingPointsEv
libqucs.so:_ZN9comp_1bit19loadOperatingPointsEv
libqucs.so:_ZN9comp_1bit19saveOperatingPointsEv
libqucs.so:_ZN9comp_1bit6calcACEd
libqucs.so:_ZN9comp_1bit6calcDCEv
libqucs.so:_ZN9comp_1bit6calcHBEi
libqucs.so:_ZN9comp_1bit6calcSPEd
libqucs.so:_ZN9comp_1bit6calcTREd
libqucs.so:_ZN9comp_1bit6cirdefE
libqucs.so:_ZN9comp_1bit6initACEv
libqucs.so:_ZN9comp_1bit6initDCEv
libqucs.so:_ZN9comp_1bit6initHBEi
libqucs.so:_ZN9comp_1bit6initSPEv
libqucs.so:_ZN9comp_1bit6initTREv
libqucs.so:_ZN9comp_1bit9finalStepEv
libqucs.so:_ZN9comp_1bit9initModelEv
libqucs.so:_ZN9comp_1bit9restartDCEv
libqucs.so:_ZN9comp_1bitC1Ev
libqucs.so:_ZN9comp_1bitC2Ev
libqucs.so:_ZN9comp_2bit11calcMatrixYEd
libqucs.so:_ZN9comp_2bit11calcNoiseACEd
libqucs.so:_ZN9comp_2bit11calcNoiseSPEd
libqucs.so:_ZN9comp_2bit11calcVerilogEv
libqucs.so:_ZN9comp_2bit11initVerilogEv
libqucs.so:_ZN9comp_2bit11initialStepEv
libqucs.so:_ZN9comp_2bit12calcMatrixCyEd
libqucs.so:_ZN9comp_2bit13loadVariablesEv
libqucs.so:_ZN9comp_2bit15initializeModelEv
libqucs.so:_ZN9comp_2bit18initializeInstanceEv
libqucs.so:_ZN9comp_2bit19calcOperatingPointsEv
libqucs.so:_ZN9comp_2bit19loadOperatingPointsEv
libqucs.so:_ZN9comp_2bit19saveOperatingPointsEv
libqucs.so:_ZN9comp_2bit6calcACEd
libqucs.so:_ZN9comp_2bit6calcDCEv
libqucs.so:_ZN9comp_2bit6calcHBEi
libqucs.so:_ZN9comp_2bit6calcSPEd
libqucs.so:_ZN9comp_2bit6calcTREd
libqucs.so:_ZN9comp_2bit6cirdefE
libqucs.so:_ZN9comp_2bit6initACEv
libqucs.so:_ZN9comp_2bit6initDCEv
libqucs.so:_ZN9comp_2bit6initHBEi
libqucs.so:_ZN9comp_2bit6initSPEv
libqucs.so:_ZN9comp_2bit6initTREv
libqucs.so:_ZN9comp_2bit9finalStepEv
libqucs.so:_ZN9comp_2bit9initModelEv
libqucs.so:_ZN9comp_2bit9restartDCEv
libqucs.so:_ZN9comp_2bitC1Ev
libqucs.so:_ZN9comp_2bitC2Ev
libqucs.so:_ZN9comp_4bit11calcMatrixYEd
libqucs.so:_ZN9comp_4bit11calcNoiseACEd
libqucs.so:_ZN9comp_4bit11calcNoiseSPEd
libqucs.so:_ZN9comp_4bit11calcVerilogEv
libqucs.so:_ZN9comp_4bit11initVerilogEv
libqucs.so:_ZN9comp_4bit11initialStepEv
libqucs.so:_ZN9comp_4bit12calcMatrixCyEd
libqucs.so:_ZN9comp_4bit13loadVariablesEv
libqucs.so:_ZN9comp_4bit15initializeModelEv
libqucs.so:_ZN9comp_4bit18initializeInstanceEv
libqucs.so:_ZN9comp_4bit19calcOperatingPointsEv
libqucs.so:_ZN9comp_4bit19loadOperatingPointsEv
libqucs.so:_ZN9comp_4bit19saveOperatingPointsEv
libqucs.so:_ZN9comp_4bit6calcACEd
libqucs.so:_ZN9comp_4bit6calcDCEv
libqucs.so:_ZN9comp_4bit6calcHBEi
libqucs.so:_ZN9comp_4bit6calcSPEd
libqucs.so:_ZN9comp_4bit6calcTREd
libqucs.so:_ZN9comp_4bit6cirdefE
libqucs.so:_ZN9comp_4bit6initACEv
libqucs.so:_ZN9comp_4bit6initDCEv
libqucs.so:_ZN9comp_4bit6initHBEi
libqucs.so:_ZN9comp_4bit6initSPEv
libqucs.so:_ZN9comp_4bit6initTREv
libqucs.so:_ZN9comp_4bit9finalStepEv
libqucs.so:_ZN9comp_4bit9initModelEv
libqucs.so:_ZN9comp_4bit9restartDCEv
libqucs.so:_ZN9comp_4bitC1Ev
libqucs.so:_ZN9comp_4bitC2Ev
libqucs.so:_ZN9dmux4to1611calcMatrixYEd
libqucs.so:_ZN9dmux4to1611calcNoiseACEd
libqucs.so:_ZN9dmux4to1611calcNoiseSPEd
libqucs.so:_ZN9dmux4to1611calcVerilogEv
libqucs.so:_ZN9dmux4to1611initVerilogEv
libqucs.so:_ZN9dmux4to1611initialStepEv
libqucs.so:_ZN9dmux4to1612calcMatrixCyEd
libqucs.so:_ZN9dmux4to1613loadVariablesEv
libqucs.so:_ZN9dmux4to1615initializeModelEv
libqucs.so:_ZN9dmux4to1618initializeInstanceEv
libqucs.so:_ZN9dmux4to1619calcOperatingPointsEv
libqucs.so:_ZN9dmux4to1619loadOperatingPointsEv
libqucs.so:_ZN9dmux4to1619saveOperatingPointsEv
libqucs.so:_ZN9dmux4to166calcACEd
libqucs.so:_ZN9dmux4to166calcDCEv
libqucs.so:_ZN9dmux4to166calcHBEi
libqucs.so:_ZN9dmux4to166calcSPEd
libqucs.so:_ZN9dmux4to166calcTREd
libqucs.so:_ZN9dmux4to166cirdefE
libqucs.so:_ZN9dmux4to166initACEv
libqucs.so:_ZN9dmux4to166initDCEv
libqucs.so:_ZN9dmux4to166initHBEi
libqucs.so:_ZN9dmux4to166initSPEv
libqucs.so:_ZN9dmux4to166initTREv
libqucs.so:_ZN9dmux4to169finalStepEv
libqucs.so:_ZN9dmux4to169initModelEv
libqucs.so:_ZN9dmux4to169restartDCEv
libqucs.so:_ZN9dmux4to16C1Ev
libqucs.so:_ZN9dmux4to16C2Ev
libqucs.so:_ZN9logicnand10calcOutputEv
libqucs.so:_ZN9logicnand15calcDerivativesEv
libqucs.so:_ZN9logicnand6cirdefE
libqucs.so:_ZN9logicnandC1Ev
libqucs.so:_ZN9logicnandC2Ev
libqucs.so:_ZN9logicxnor10calcOutputEv
libqucs.so:_ZN9logicxnor15calcDerivativesEv
libqucs.so:_ZN9logicxnor6cirdefE
libqucs.so:_ZN9logicxnorC1Ev
libqucs.so:_ZN9logicxnorC2Ev
libqucs.so:_ZN9mscoupled11calcNoiseACEd
libqucs.so:_ZN9mscoupled11calcNoiseSPEd
libqucs.so:_ZN9mscoupled15calcPropagationEd
libqucs.so:_ZN9mscoupled17analysQuasiStaticEdddddPKcRdS2_S2_S2_
libqucs.so:_ZN9mscoupled17analyseDispersionEdddddddddPKcRdS2_S2_S2_
libqucs.so:_ZN9mscoupled19saveCharacteristicsEd
libqucs.so:_ZN9mscoupled6calcACEd
libqucs.so:_ZN9mscoupled6calcSPEd
libqucs.so:_ZN9mscoupled6cirdefE
libqucs.so:_ZN9mscoupled6initACEv
libqucs.so:_ZN9mscoupled6initDCEv
libqucs.so:_ZN9mscoupledC1Ev
libqucs.so:_ZN9mscoupledC2Ev
libqucs.so:_ZN9thyristor11calcMatrixYEd
libqucs.so:_ZN9thyristor12calcTheModelEb
libqucs.so:_ZN9thyristor19calcOperatingPointsEv
libqucs.so:_ZN9thyristor19loadOperatingPointsEv
libqucs.so:_ZN9thyristor19saveOperatingPointsEv
libqucs.so:_ZN9thyristor6calcACEd
libqucs.so:_ZN9thyristor6calcDCEv
libqucs.so:_ZN9thyristor6calcSPEd
libqucs.so:_ZN9thyristor6calcTREd
libqucs.so:_ZN9thyristor6cirdefE
libqucs.so:_ZN9thyristor6initACEv
libqucs.so:_ZN9thyristor6initDCEv
libqucs.so:_ZN9thyristor6initTREv
libqucs.so:_ZN9thyristorC1Ev
libqucs.so:_ZN9thyristorC2Ev
libqucs.so:_ZNK4qucs11environment11getVariableEPKc
libqucs.so:_ZNK4qucs11environment15equationCheckerEi
libqucs.so:_ZNK4qucs11environment17getDoubleConstantEPKc
libqucs.so:_ZNK4qucs11environment18getDoubleReferenceEPKc
libqucs.so:_ZNK4qucs11environment5printEb
libqucs.so:_ZNK4qucs11environment9getDoubleEPKc
libqucs.so:_ZNK4qucs11environment9getVectorEPKc
libqucs.so:_ZNK4qucs3eqn7checker12findEquationEPKc
libqucs.so:_ZNK4qucs3eqn7checker16containsVariableEPKc
libqucs.so:_ZNK4qucs3eqn7checker9getDoubleEPKc
libqucs.so:_ZNK4qucs3eqn7checker9getVectorEPKc
libqucs.so:_ZNK4qucs3net12findAnalysisERKNSt7__cxx1112basic_stringIcSt11char_traitsIcESaIcEEE
libqucs.so:_ZNK4qucs3net8getChildEPNS_8analysisE
libqucs.so:_ZNK4qucs6object11hasPropertyERKNSt7__cxx1112basic_stringIcSt11char_traitsIcESaIcEEE
libqucs.so:_ZNK4qucs6object12propertyListEv
libqucs.so:_ZNK4qucs6object15countPropertiesEv
libqucs.so:_ZNK4qucs6object15isPropertyGivenERKNSt7__cxx1112basic_stringIcSt11char_traitsIcESaIcEEE
libqucs.so:_ZNK4qucs6object17getPropertyDoubleERKNSt7__cxx1112basic_stringIcSt11char_traitsIcESaIcEEE
libqucs.so:_ZNK4qucs6object17getPropertyStringERKNSt7__cxx1112basic_stringIcSt11char_traitsIcESaIcEEE
libqucs.so:_ZNK4qucs6object17getPropertyVectorERKNSt7__cxx1112basic_stringIcSt11char_traitsIcESaIcEEE
libqucs.so:_ZNK4qucs6object17getScaledPropertyERKNSt7__cxx1112basic_stringIcSt11char_traitsIcESaIcEEE
libqucs.so:_ZNK4qucs6object18getPropertyIntegerERKNSt7__cxx1112basic_stringIcSt11char_traitsIcESaIcEEE
libqucs.so:_ZNK4qucs6object20getPropertyReferenceERKNSt7__cxx1112basic_stringIcSt11char_traitsIcESaIcEEE
libqucs.so:_ZNK4qucs6vector7getSizeEv
libqucs.so:_ZNK4qucs7strlist3getEi
libqucs.so:_ZNK4qucs7strlist4lastEv
libqucs.so:_ZNK4qucs7strlist5firstEv
libqucs.so:_ZNK4qucs7strlist6lengthEv
libqucs.so:_ZNK4qucs7strlist8containsEPKc
libqucs.so:_ZNK4qucs8nodelist10isInternalEi
libqucs.so:_ZNK4qucs8nodelist13getNodeStringB5cxx11Ei
libqucs.so:_ZNK4qucs8nodelist3getB5cxx11Ei
libqucs.so:_ZNK4qucs8nodelist5printEv
libqucs.so:_ZNK4qucs8nodelist6lengthEv
libqucs.so:_ZNK4qucs8nodelist7getNodeERKNSt7__cxx1112basic_stringIcSt11char_traitsIcESaIcEEE
libqucs.so:_ZNK4qucs8nodelist8containsERKNSt7__cxx1112basic_stringIcSt11char_traitsIcESaIcEEE
libqucs.so:_ZNK4qucs8nodelist9getNodeNrERKNSt7__cxx1112basic_stringIcSt11char_traitsIcESaIcEEE
libqucs.so:_ZNK4qucs8property10getIntegerEv
libqucs.so:_ZNK4qucs8property12getReferenceEv
libqucs.so:_ZNK4qucs8property8toStringB5cxx11Ev
libqucs.so:_ZNK4qucs8property9getDoubleEv
libqucs.so:_ZNK4qucs8property9getStringEv
libqucs.so:_ZNK4qucs8property9getVectorEv
libqucs.so:_ZNK4qucs9devstates9deviceVarEi
libqucs.so:_ZNK4qucs9devstatesclEi
libqucs.so:_ZNK8bondwire10LfreespaceEd
libqucs.so:_ZNK8bondwire10resistanceEd
libqucs.so:_ZNK8bondwire7LmirrorEv
libqucs.so:_fini
libqucs.so:_init
libqucs.so:citi__flex_debug
libqucs.so:citi_char
libqucs.so:citi_check
libqucs.so:citi_debug
libqucs.so:citi_destroy
libqucs.so:citi_error
libqucs.so:citi_in
libqucs.so:citi_init
libqucs.so:citi_leng
libqucs.so:citi_lex
libqucs.so:citi_lex_destroy
libqucs.so:citi_lineno
libqucs.so:citi_lval
libqucs.so:citi_nerrs
libqucs.so:citi_out
libqucs.so:citi_parse
libqucs.so:citi_result
libqucs.so:citi_root
libqucs.so:citi_text
libqucs.so:csv__flex_debug
libqucs.so:csv_char
libqucs.so:csv_check
libqucs.so:csv_debug
libqucs.so:csv_destroy
libqucs.so:csv_error
libqucs.so:csv_header
libqucs.so:csv_in
libqucs.so:csv_init
libqucs.so:csv_leng
libqucs.so:csv_lex
libqucs.so:csv_lex_destroy
libqucs.so:csv_lineno
libqucs.so:csv_lval
libqucs.so:csv_nerrs
libqucs.so:csv_out
libqucs.so:csv_parse
libqucs.so:csv_result
libqucs.so:csv_text
libqucs.so:csv_vector
libqucs.so:dataset__flex_debug
libqucs.so:dataset_char
libqucs.so:dataset_check
libqucs.so:dataset_debug
libqucs.so:dataset_error
libqucs.so:dataset_idents
libqucs.so:dataset_in
libqucs.so:dataset_leng
libqucs.so:dataset_lex
libqucs.so:dataset_lex_destroy
libqucs.so:dataset_lineno
libqucs.so:dataset_lval
libqucs.so:dataset_nerrs
libqucs.so:dataset_out
libqucs.so:dataset_parse
libqucs.so:dataset_result
libqucs.so:dataset_text
libqucs.so:dataset_vector
libqucs.so:definition_root
libqucs.so:env_root
libqucs.so:factorycreate
libqucs.so:factorydef
libqucs.so:file_error
libqucs.so:file_status
libqucs.so:itr
libqucs.so:loginit
libqucs.so:logprint
libqucs.so:logprogressbar
libqucs.so:logprogressclear
libqucs.so:mdl__flex_debug
libqucs.so:mdl_char
libqucs.so:mdl_check
libqucs.so:mdl_debug
libqucs.so:mdl_destroy
libqucs.so:mdl_error
libqucs.so:mdl_in
libqucs.so:mdl_init
libqucs.so:mdl_leng
libqucs.so:mdl_lex
libqucs.so:mdl_lex_destroy
libqucs.so:mdl_lineno
libqucs.so:mdl_lval
libqucs.so:mdl_nerrs
libqucs.so:mdl_out
libqucs.so:mdl_parse
libqucs.so:mdl_result
libqucs.so:mdl_root
libqucs.so:mdl_sync_root
libqucs.so:mdl_text
libqucs.so:miscdef1
libqucs.so:miscdef2
libqucs.so:netlist__flex_debug
libqucs.so:netlist_char
libqucs.so:netlist_checker
libqucs.so:netlist_checker_variables
libqucs.so:netlist_debug
libqucs.so:netlist_destroy
libqucs.so:netlist_destroy_env
libqucs.so:netlist_error
libqucs.so:netlist_in
libqucs.so:netlist_leng
libqucs.so:netlist_lex
libqucs.so:netlist_lex_destroy
libqucs.so:netlist_lineno
libqucs.so:netlist_list
libqucs.so:netlist_lval
libqucs.so:netlist_nerrs
libqucs.so:netlist_out
libqucs.so:netlist_parse
libqucs.so:netlist_status
libqucs.so:netlist_text
libqucs.so:netlist_unchain_definition
libqucs.so:progressbar_enable
libqucs.so:progressbar_gui
libqucs.so:progressbar_last
libqucs.so:redirect_status_to_stdout
libqucs.so:subcircuit_root
libqucs.so:touchstone__flex_debug
libqucs.so:touchstone_char
libqucs.so:touchstone_check
libqucs.so:touchstone_debug
libqucs.so:touchstone_destroy
libqucs.so:touchstone_error
libqucs.so:touchstone_idents
libqucs.so:touchstone_in
libqucs.so:touchstone_init
libqucs.so:touchstone_leng
libqucs.so:touchstone_lex
libqucs.so:touchstone_lex_destroy
libqucs.so:touchstone_lineno
libqucs.so:touchstone_lval
libqucs.so:touchstone_nerrs
libqucs.so:touchstone_options
libqucs.so:touchstone_out
libqucs.so:touchstone_parse
libqucs.so:touchstone_result
libqucs.so:touchstone_text
libqucs.so:touchstone_vector
libqucs.so:zvr__flex_debug
libqucs.so:zvr_char
libqucs.so:zvr_check
libqucs.so:zvr_debug
libqucs.so:zvr_destroy
libqucs.so:zvr_error
libqucs.so:zvr_in
libqucs.so:zvr_init
libqucs.so:zvr_leng
libqucs.so:zvr_lex
libqucs.so:zvr_lex_destroy
libqucs.so:zvr_lineno
libqucs.so:zvr_lval
libqucs.so:zvr_nerrs
libqucs.so:zvr_out
libqucs.so:zvr_parse
libqucs.so:zvr_result
libqucs.so:zvr_root
libqucs.so:zvr_text
